   1              		.syntax unified
   2              		.cpu cortex-m4
   3              		.eabi_attribute 27, 3
   4              		.fpu fpv4-sp-d16
   5              		.eabi_attribute 20, 1
   6              		.eabi_attribute 21, 1
   7              		.eabi_attribute 23, 3
   8              		.eabi_attribute 24, 1
   9              		.eabi_attribute 25, 1
  10              		.eabi_attribute 26, 1
  11              		.eabi_attribute 30, 6
  12              		.eabi_attribute 34, 1
  13              		.eabi_attribute 18, 4
  14              		.thumb
  15              		.file	"Main.c"
  16              		.text
  17              	.Ltext0:
  18              		.cfi_sections	.debug_frame
  19              		.comm	Timer_WaitId,4,4
  20              		.comm	TimerId,4,4
  21              		.comm	TimerId1Sec,4,4
  22              		.global	Timer_Wait_Expired
  23              		.bss
  26              	Timer_Wait_Expired:
  27 0000 00       		.space	1
  28              		.global	Timer_Flag
  31              	Timer_Flag:
  32 0001 00       		.space	1
  33              		.global	Timer_Flag_1sec
  36              	Timer_Flag_1sec:
  37 0002 00       		.space	1
  38              		.global	time_secs
  41              	time_secs:
  42 0003 00       		.space	1
  43              		.global	PID_Desc
  44              		.data
  45              		.align	2
  48              	PID_Desc:
  49 0000 50494430 		.ascii	"PID00-21\000"
  49      302D3231 
  49      00
  50 0009 53746174 		.ascii	"Stat DTC\000"
  50      20445443 
  50      00
  51 0012 46727A20 		.ascii	"Frz DTC\000"
  51      44544300 
  52 001a 00       		.space	1
  53 001b 4675656C 		.ascii	"Fuel SS\000"
  53      20535300 
  54 0023 00       		.space	1
  55 0024 456E6720 		.ascii	"Eng Load\000"
  55      4C6F6164 
  55      00
  56 002d 436F6F6C 		.ascii	"CoolantT\000"
  56      616E7454 
  56      00
  57 0036 53542046 		.ascii	"ST F%T 1\000"
  57      25542031 
  57      00
  58 003f 4C542046 		.ascii	"LT F%T 1\000"
  58      25542031 
  58      00
  59 0048 53542046 		.ascii	"ST F%T 2\000"
  59      25542032 
  59      00
  60 0051 4C542046 		.ascii	"LT F%T 2\000"
  60      25542032 
  60      00
  61 005a 4675656C 		.ascii	"Fuel Prs\000"
  61      20507273 
  61      00
  62 0063 20204D41 		.ascii	"  MAP  \000"
  62      50202000 
  63 006b 00       		.space	1
  64 006c 20205250 		.ascii	"  RPM  \000"
  64      4D202000 
  65 0074 00       		.space	1
  66 0075 20537065 		.ascii	" Speed \000"
  66      65642000 
  67 007d 00       		.space	1
  68 007e 54696D69 		.ascii	"Timing A\000"
  68      6E672041 
  68      00
  69 0087 496E7461 		.ascii	"Intake T\000"
  69      6B652054 
  69      00
  70 0090 4D414620 		.ascii	"MAF rate\000"
  70      72617465 
  70      00
  71 0099 5468726F 		.ascii	"Throttle\000"
  71      74746C65 
  71      00
  72 00a2 436D6420 		.ascii	"Cmd SAS\000"
  72      53415300 
  73 00aa 00       		.space	1
  74 00ab 4F787920 		.ascii	"Oxy Sens\000"
  74      53656E73 
  74      00
  75 00b4 4F787920 		.ascii	"Oxy B1S1\000"
  75      42315331 
  75      00
  76 00bd 4F787920 		.ascii	"Oxy B1S2\000"
  76      42315332 
  76      00
  77 00c6 4F787920 		.ascii	"Oxy B1S3\000"
  77      42315333 
  77      00
  78 00cf 4F787920 		.ascii	"Oxy B1S4\000"
  78      42315334 
  78      00
  79 00d8 4F787920 		.ascii	"Oxy B2S1\000"
  79      42325331 
  79      00
  80 00e1 4F787920 		.ascii	"Oxy B2S2\000"
  80      42325332 
  80      00
  81 00ea 4F787920 		.ascii	"Oxy B2S3\000"
  81      42325333 
  81      00
  82 00f3 4F787920 		.ascii	"Oxy B2S4\000"
  82      42325334 
  82      00
  83 00fc 4F424420 		.ascii	"OBD Std\000"
  83      53746400 
  84 0104 00       		.space	1
  85 0105 4F787920 		.ascii	"Oxy Sens\000"
  85      53656E73 
  85      00
  86 010e 41757849 		.ascii	"AuxInpt\000"
  86      6E707400 
  87 0116 00       		.space	1
  88 0117 52756E20 		.ascii	"Run Time\000"
  88      54696D65 
  88      00
  89 0120 50494432 		.ascii	"PID21-40\000"
  89      312D3430 
  89      00
  90 0129 44697374 		.ascii	"Dist MIL\000"
  90      204D494C 
  90      00
  91 0132 46525020 		.ascii	"FRP RMF\000"
  91      524D4600 
  92 013a 00       		.space	1
  93 013b 46525020 		.ascii	"FRP Dies\000"
  93      44696573 
  93      00
  94 0144 4F787953 		.ascii	"OxyS1 V\000"
  94      31205600 
  95 014c 00       		.space	1
  96 014d 4F787953 		.ascii	"OxyS2 V\000"
  96      32205600 
  97 0155 00       		.space	1
  98 0156 4F787953 		.ascii	"OxyS3 V\000"
  98      33205600 
  99 015e 00       		.space	1
 100 015f 4F787953 		.ascii	"OxyS4 V\000"
 100      34205600 
 101 0167 00       		.space	1
 102 0168 4F787953 		.ascii	"OxyS5 V\000"
 102      35205600 
 103 0170 00       		.space	1
 104 0171 4F787953 		.ascii	"OxyS6 V\000"
 104      36205600 
 105 0179 00       		.space	1
 106 017a 4F787953 		.ascii	"OxyS7 V\000"
 106      37205600 
 107 0182 00       		.space	1
 108 0183 4F787953 		.ascii	"OxyS8 V\000"
 108      38205600 
 109 018b 00       		.space	1
 110 018c 436D6420 		.ascii	"Cmd EGR\000"
 110      45475200 
 111 0194 00       		.space	1
 112 0195 45475220 		.ascii	"EGR Err\000"
 112      45727200 
 113 019d 00       		.space	1
 114 019e 436D6420 		.ascii	"Cmd EP\000"
 114      455000
 115 01a5 0000     		.space	2
 116 01a7 4675656C 		.ascii	"Fuel LI\000"
 116      204C4900 
 117 01af 00       		.space	1
 118 01b0 5761726D 		.ascii	"WarmupCC\000"
 118      75704343 
 118      00
 119 01b9 44697374 		.ascii	"Dist CC\000"
 119      20434300 
 120 01c1 00       		.space	1
 121 01c2 45766170 		.ascii	"Evap SVP\000"
 121      20535650 
 121      00
 122 01cb 4261726F 		.ascii	"Barometr\000"
 122      6D657472 
 122      00
 123 01d4 4F787953 		.ascii	"OxyS1 C\000"
 123      31204300 
 124 01dc 00       		.space	1
 125 01dd 4F787953 		.ascii	"OxyS2 C\000"
 125      32204300 
 126 01e5 00       		.space	1
 127 01e6 4F787953 		.ascii	"OxyS3 C\000"
 127      33204300 
 128 01ee 00       		.space	1
 129 01ef 4F787953 		.ascii	"OxyS4 C\000"
 129      34204300 
 130 01f7 00       		.space	1
 131 01f8 4F787953 		.ascii	"OxyS5 C\000"
 131      35204300 
 132 0200 00       		.space	1
 133 0201 4F787953 		.ascii	"OxyS6 C\000"
 133      36204300 
 134 0209 00       		.space	1
 135 020a 4F787953 		.ascii	"OxyS7 C\000"
 135      37204300 
 136 0212 00       		.space	1
 137 0213 4F787953 		.ascii	"OxyS8 C\000"
 137      38204300 
 138 021b 00       		.space	1
 139 021c 43205420 		.ascii	"C T B1S1\000"
 139      42315331 
 139      00
 140 0225 43205420 		.ascii	"C T B1S2\000"
 140      42315332 
 140      00
 141 022e 43205420 		.ascii	"C T B2S1\000"
 141      42325331 
 141      00
 142 0237 43205420 		.ascii	"C T B2S2\000"
 142      42325332 
 142      00
 143 0240 50494434 		.ascii	"PID41-60\000"
 143      312D3630 
 143      00
 144 0249 204D5374 		.ascii	" MStDC\000"
 144      444300
 145 0250 0000     		.space	2
 146 0252 4374726C 		.ascii	"Ctrl M V\000"
 146      204D2056 
 146      00
 147 025b 41627320 		.ascii	"Abs L V\000"
 147      4C205600 
 148 0263 00       		.space	1
 149 0264 436D6420 		.ascii	"Cmd E R\000"
 149      45205200 
 150 026c 00       		.space	1
 151 026d 52205468 		.ascii	"R ThrotP\000"
 151      726F7450 
 151      00
 152 0276 416D6220 		.ascii	"Amb Temp\000"
 152      54656D70 
 152      00
 153 027f 41636320 		.ascii	"Acc PP B\000"
 153      50502042 
 153      00
 154 0288 41636320 		.ascii	"Acc PP C\000"
 154      50502043 
 154      00
 155 0291 41636320 		.ascii	"Acc PP D\000"
 155      50502044 
 155      00
 156 029a 41636320 		.ascii	"Acc PP E\000"
 156      50502045 
 156      00
 157 02a3 41636320 		.ascii	"Acc PP F\000"
 157      50502046 
 157      00
 158 02ac 436D6420 		.ascii	"Cmd T A\000"
 158      54204100 
 159 02b4 00       		.space	1
 160 02b5 54204D49 		.ascii	"T MIL On\000"
 160      4C204F6E 
 160      00
 161 02be 54205443 		.ascii	"T TC Crl\000"
 161      2043726C 
 161      00
 162 02c7 20203078 		.ascii	"  0x4F\000"
 162      344600
 163 02ce 0000     		.space	2
 164 02d0 20203078 		.ascii	"  0x50\000"
 164      353000
 165 02d7 0000     		.space	2
 166 02d9 4675656C 		.ascii	"Fuel Typ\000"
 166      20547970 
 166      00
 167 02e2 45746879 		.ascii	"Ethyl F%\000"
 167      6C204625 
 167      00
 168 02eb 00       		.ascii	"\000"
 169 02ec 00000000 		.space	8
 169      00000000 
 170 02f4 00       		.ascii	"\000"
 171 02f5 00000000 		.space	8
 171      00000000 
 172 02fd 00       		.ascii	"\000"
 173 02fe 00000000 		.space	8
 173      00000000 
 174 0306 00       		.ascii	"\000"
 175 0307 00000000 		.space	8
 175      00000000 
 176 030f 00       		.ascii	"\000"
 177 0310 00000000 		.space	8
 177      00000000 
 178 0318 00       		.ascii	"\000"
 179 0319 00000000 		.space	8
 179      00000000 
 180 0321 00       		.ascii	"\000"
 181 0322 00000000 		.space	8
 181      00000000 
 182 032a 00       		.ascii	"\000"
 183 032b 00000000 		.space	8
 183      00000000 
 184 0333 00       		.ascii	"\000"
 185 0334 00000000 		.space	8
 185      00000000 
 186 033c 00       		.ascii	"\000"
 187 033d 00000000 		.space	8
 187      00000000 
 188 0345 00       		.ascii	"\000"
 189 0346 00000000 		.space	8
 189      00000000 
 190 034e 00       		.ascii	"\000"
 191 034f 00000000 		.space	8
 191      00000000 
 192 0357 00       		.ascii	"\000"
 193 0358 00000000 		.space	8
 193      00000000 
 194 0360 00       		.ascii	"\000"
 195 0361 00000000 		.space	8
 195      00000000 
 196 0369 00       		.ascii	"\000"
 197 036a 00000000 		.space	8
 197      00000000 
 198 0372 00       		.ascii	"\000"
 199 0373 00000000 		.space	8
 199      00000000 
 200 037b 00       		.ascii	"\000"
 201 037c 00000000 		.space	8
 201      00000000 
 202 0384 00       		.ascii	"\000"
 203 0385 00000000 		.space	8
 203      00000000 
 204 038d 00       		.ascii	"\000"
 205 038e 00000000 		.space	8
 205      00000000 
 206 0396 00       		.ascii	"\000"
 207 0397 00000000 		.space	8
 207      00000000 
 208 039f 00       		.ascii	"\000"
 209 03a0 00000000 		.space	8
 209      00000000 
 210 03a8 00       		.ascii	"\000"
 211 03a9 00000000 		.space	8
 211      00000000 
 212 03b1 00       		.ascii	"\000"
 213 03b2 00000000 		.space	8
 213      00000000 
 214 03ba 00       		.ascii	"\000"
 215 03bb 00000000 		.space	8
 215      00000000 
 216 03c3 00       		.ascii	"\000"
 217 03c4 00000000 		.space	8
 217      00000000 
 218 03cc 00       		.ascii	"\000"
 219 03cd 00000000 		.space	8
 219      00000000 
 220 03d5 00       		.ascii	"\000"
 221 03d6 00000000 		.space	8
 221      00000000 
 222 03de 00       		.ascii	"\000"
 223 03df 00000000 		.space	8
 223      00000000 
 224 03e7 00       		.ascii	"\000"
 225 03e8 00000000 		.space	8
 225      00000000 
 226 03f0 00       		.ascii	"\000"
 227 03f1 00000000 		.space	8
 227      00000000 
 228 03f9 00       		.ascii	"\000"
 229 03fa 00000000 		.space	8
 229      00000000 
 230 0402 00       		.ascii	"\000"
 231 0403 00000000 		.space	8
 231      00000000 
 232 040b 00       		.ascii	"\000"
 233 040c 00000000 		.space	8
 233      00000000 
 234 0414 00       		.ascii	"\000"
 235 0415 00000000 		.space	8
 235      00000000 
 236 041d 00       		.ascii	"\000"
 237 041e 00000000 		.space	8
 237      00000000 
 238 0426 00       		.ascii	"\000"
 239 0427 00000000 		.space	8
 239      00000000 
 240 042f 00       		.ascii	"\000"
 241 0430 00000000 		.space	8
 241      00000000 
 242 0438 00       		.ascii	"\000"
 243 0439 00000000 		.space	8
 243      00000000 
 244 0441 00       		.ascii	"\000"
 245 0442 00000000 		.space	8
 245      00000000 
 246 044a 00       		.ascii	"\000"
 247 044b 00000000 		.space	8
 247      00000000 
 248 0453 00       		.ascii	"\000"
 249 0454 00000000 		.space	8
 249      00000000 
 250 045c 00       		.ascii	"\000"
 251 045d 00000000 		.space	8
 251      00000000 
 252 0465 00       		.ascii	"\000"
 253 0466 00000000 		.space	8
 253      00000000 
 254 046e 00       		.ascii	"\000"
 255 046f 00000000 		.space	8
 255      00000000 
 256 0477 00       		.ascii	"\000"
 257 0478 00000000 		.space	8
 257      00000000 
 258 0480 00       		.ascii	"\000"
 259 0481 00000000 		.space	8
 259      00000000 
 260 0489 00       		.ascii	"\000"
 261 048a 00000000 		.space	8
 261      00000000 
 262 0492 00       		.ascii	"\000"
 263 0493 00000000 		.space	8
 263      00000000 
 264 049b 00       		.ascii	"\000"
 265 049c 00000000 		.space	8
 265      00000000 
 266 04a4 00       		.ascii	"\000"
 267 04a5 00000000 		.space	8
 267      00000000 
 268 04ad 00       		.ascii	"\000"
 269 04ae 00000000 		.space	8
 269      00000000 
 270 04b6 00       		.ascii	"\000"
 271 04b7 00000000 		.space	8
 271      00000000 
 272 04bf 00       		.ascii	"\000"
 273 04c0 00000000 		.space	8
 273      00000000 
 274 04c8 00       		.ascii	"\000"
 275 04c9 00000000 		.space	8
 275      00000000 
 276 04d1 00       		.ascii	"\000"
 277 04d2 00000000 		.space	8
 277      00000000 
 278 04da 00       		.ascii	"\000"
 279 04db 00000000 		.space	8
 279      00000000 
 280 04e3 00       		.ascii	"\000"
 281 04e4 00000000 		.space	8
 281      00000000 
 282 04ec 00       		.ascii	"\000"
 283 04ed 00000000 		.space	8
 283      00000000 
 284 04f5 00       		.ascii	"\000"
 285 04f6 00000000 		.space	8
 285      00000000 
 286 04fe 00       		.ascii	"\000"
 287 04ff 00000000 		.space	8
 287      00000000 
 288 0507 00       		.ascii	"\000"
 289 0508 00000000 		.space	8
 289      00000000 
 290 0510 00       		.ascii	"\000"
 291 0511 00000000 		.space	8
 291      00000000 
 292 0519 00       		.ascii	"\000"
 293 051a 00000000 		.space	8
 293      00000000 
 294 0522 00       		.ascii	"\000"
 295 0523 00000000 		.space	8
 295      00000000 
 296 052b 00       		.ascii	"\000"
 297 052c 00000000 		.space	8
 297      00000000 
 298 0534 00       		.ascii	"\000"
 299 0535 00000000 		.space	8
 299      00000000 
 300 053d 00       		.ascii	"\000"
 301 053e 00000000 		.space	8
 301      00000000 
 302 0546 00       		.ascii	"\000"
 303 0547 00000000 		.space	8
 303      00000000 
 304 054f 00       		.ascii	"\000"
 305 0550 00000000 		.space	8
 305      00000000 
 306 0558 00       		.ascii	"\000"
 307 0559 00000000 		.space	8
 307      00000000 
 308 0561 00       		.ascii	"\000"
 309 0562 00000000 		.space	8
 309      00000000 
 310 056a 00       		.ascii	"\000"
 311 056b 00000000 		.space	8
 311      00000000 
 312 0573 00       		.ascii	"\000"
 313 0574 00000000 		.space	8
 313      00000000 
 314 057c 00       		.ascii	"\000"
 315 057d 00000000 		.space	8
 315      00000000 
 316 0585 00       		.ascii	"\000"
 317 0586 00000000 		.space	8
 317      00000000 
 318 058e 00       		.ascii	"\000"
 319 058f 00000000 		.space	8
 319      00000000 
 320 0597 00       		.ascii	"\000"
 321 0598 00000000 		.space	8
 321      00000000 
 322 05a0 00       		.ascii	"\000"
 323 05a1 00000000 		.space	8
 323      00000000 
 324 05a9 00       		.ascii	"\000"
 325 05aa 00000000 		.space	8
 325      00000000 
 326 05b2 00       		.ascii	"\000"
 327 05b3 00000000 		.space	8
 327      00000000 
 328 05bb 00       		.ascii	"\000"
 329 05bc 00000000 		.space	8
 329      00000000 
 330 05c4 00       		.ascii	"\000"
 331 05c5 00000000 		.space	8
 331      00000000 
 332 05cd 00       		.ascii	"\000"
 333 05ce 00000000 		.space	8
 333      00000000 
 334 05d6 00       		.ascii	"\000"
 335 05d7 00000000 		.space	8
 335      00000000 
 336 05df 00       		.ascii	"\000"
 337 05e0 00000000 		.space	8
 337      00000000 
 338 05e8 00       		.ascii	"\000"
 339 05e9 00000000 		.space	8
 339      00000000 
 340 05f1 00       		.ascii	"\000"
 341 05f2 00000000 		.space	8
 341      00000000 
 342 05fa 00       		.ascii	"\000"
 343 05fb 00000000 		.space	8
 343      00000000 
 344 0603 00       		.ascii	"\000"
 345 0604 00000000 		.space	8
 345      00000000 
 346 060c 00       		.ascii	"\000"
 347 060d 00000000 		.space	8
 347      00000000 
 348 0615 00       		.ascii	"\000"
 349 0616 00000000 		.space	8
 349      00000000 
 350 061e 00       		.ascii	"\000"
 351 061f 00000000 		.space	8
 351      00000000 
 352 0627 00       		.ascii	"\000"
 353 0628 00000000 		.space	8
 353      00000000 
 354 0630 00       		.ascii	"\000"
 355 0631 00000000 		.space	8
 355      00000000 
 356 0639 00       		.ascii	"\000"
 357 063a 00000000 		.space	8
 357      00000000 
 358 0642 00       		.ascii	"\000"
 359 0643 00000000 		.space	8
 359      00000000 
 360 064b 00       		.ascii	"\000"
 361 064c 00000000 		.space	8
 361      00000000 
 362 0654 00       		.ascii	"\000"
 363 0655 00000000 		.space	8
 363      00000000 
 364 065d 00       		.ascii	"\000"
 365 065e 00000000 		.space	8
 365      00000000 
 366 0666 00       		.ascii	"\000"
 367 0667 00000000 		.space	8
 367      00000000 
 368 066f 00       		.ascii	"\000"
 369 0670 00000000 		.space	8
 369      00000000 
 370 0678 00       		.ascii	"\000"
 371 0679 00000000 		.space	8
 371      00000000 
 372 0681 00       		.ascii	"\000"
 373 0682 00000000 		.space	8
 373      00000000 
 374 068a 00       		.ascii	"\000"
 375 068b 00000000 		.space	8
 375      00000000 
 376 0693 00       		.ascii	"\000"
 377 0694 00000000 		.space	8
 377      00000000 
 378 069c 00       		.ascii	"\000"
 379 069d 00000000 		.space	8
 379      00000000 
 380 06a5 00       		.ascii	"\000"
 381 06a6 00000000 		.space	8
 381      00000000 
 382 06ae 00       		.ascii	"\000"
 383 06af 00000000 		.space	8
 383      00000000 
 384 06b7 00       		.ascii	"\000"
 385 06b8 00000000 		.space	8
 385      00000000 
 386 06c0 00       		.ascii	"\000"
 387 06c1 00000000 		.space	8
 387      00000000 
 388 06c9 00       		.ascii	"\000"
 389 06ca 00000000 		.space	8
 389      00000000 
 390 06d2 00       		.ascii	"\000"
 391 06d3 00000000 		.space	8
 391      00000000 
 392 06db 00       		.ascii	"\000"
 393 06dc 00000000 		.space	8
 393      00000000 
 394 06e4 00       		.ascii	"\000"
 395 06e5 00000000 		.space	8
 395      00000000 
 396 06ed 00       		.ascii	"\000"
 397 06ee 00000000 		.space	8
 397      00000000 
 398 06f6 00       		.ascii	"\000"
 399 06f7 00000000 		.space	8
 399      00000000 
 400 06ff 00       		.ascii	"\000"
 401 0700 00000000 		.space	8
 401      00000000 
 402 0708 00       		.ascii	"\000"
 403 0709 00000000 		.space	8
 403      00000000 
 404 0711 00       		.ascii	"\000"
 405 0712 00000000 		.space	8
 405      00000000 
 406 071a 00       		.ascii	"\000"
 407 071b 00000000 		.space	8
 407      00000000 
 408 0723 00       		.ascii	"\000"
 409 0724 00000000 		.space	8
 409      00000000 
 410 072c 00       		.ascii	"\000"
 411 072d 00000000 		.space	8
 411      00000000 
 412 0735 00       		.ascii	"\000"
 413 0736 00000000 		.space	8
 413      00000000 
 414 073e 00       		.ascii	"\000"
 415 073f 00000000 		.space	8
 415      00000000 
 416 0747 00       		.ascii	"\000"
 417 0748 00000000 		.space	8
 417      00000000 
 418 0750 00       		.ascii	"\000"
 419 0751 00000000 		.space	8
 419      00000000 
 420 0759 00       		.ascii	"\000"
 421 075a 00000000 		.space	8
 421      00000000 
 422 0762 00       		.ascii	"\000"
 423 0763 00000000 		.space	8
 423      00000000 
 424 076b 00       		.ascii	"\000"
 425 076c 00000000 		.space	8
 425      00000000 
 426 0774 00       		.ascii	"\000"
 427 0775 00000000 		.space	8
 427      00000000 
 428 077d 00       		.ascii	"\000"
 429 077e 00000000 		.space	8
 429      00000000 
 430 0786 00       		.ascii	"\000"
 431 0787 00000000 		.space	8
 431      00000000 
 432 078f 00       		.ascii	"\000"
 433 0790 00000000 		.space	8
 433      00000000 
 434 0798 00       		.ascii	"\000"
 435 0799 00000000 		.space	8
 435      00000000 
 436 07a1 00       		.ascii	"\000"
 437 07a2 00000000 		.space	8
 437      00000000 
 438 07aa 00       		.ascii	"\000"
 439 07ab 00000000 		.space	8
 439      00000000 
 440 07b3 00       		.ascii	"\000"
 441 07b4 00000000 		.space	8
 441      00000000 
 442 07bc 00       		.ascii	"\000"
 443 07bd 00000000 		.space	8
 443      00000000 
 444 07c5 00       		.ascii	"\000"
 445 07c6 00000000 		.space	8
 445      00000000 
 446 07ce 00       		.ascii	"\000"
 447 07cf 00000000 		.space	8
 447      00000000 
 448 07d7 00       		.ascii	"\000"
 449 07d8 00000000 		.space	8
 449      00000000 
 450 07e0 00       		.ascii	"\000"
 451 07e1 00000000 		.space	8
 451      00000000 
 452 07e9 00       		.ascii	"\000"
 453 07ea 00000000 		.space	8
 453      00000000 
 454 07f2 00       		.ascii	"\000"
 455 07f3 00000000 		.space	8
 455      00000000 
 456 07fb 00       		.ascii	"\000"
 457 07fc 00000000 		.space	8
 457      00000000 
 458 0804 00       		.ascii	"\000"
 459 0805 00000000 		.space	8
 459      00000000 
 460 080d 00       		.ascii	"\000"
 461 080e 00000000 		.space	8
 461      00000000 
 462 0816 00       		.ascii	"\000"
 463 0817 00000000 		.space	8
 463      00000000 
 464 081f 4F757473 		.ascii	"OutsideT\000"
 464      69646554 
 464      00
 465 0828 496E7369 		.ascii	"Inside T\000"
 465      64652054 
 465      00
 466 0831 4F757457 		.ascii	"OutWaste\000"
 466      61737465 
 466      00
 467 083a 54727057 		.ascii	"TrpWaste\000"
 467      61737465 
 467      00
 468 0843 546E6B57 		.ascii	"TnkWaste\000"
 468      61737465 
 468      00
 469 084c 4F757420 		.ascii	"Out Cost\000"
 469      436F7374 
 469      00
 470 0855 54727020 		.ascii	"Trp Cost\000"
 470      436F7374 
 470      00
 471 085e 546E6B20 		.ascii	"Tnk Cost\000"
 471      436F7374 
 471      00
 472 0867 4F757420 		.ascii	"Out Time\000"
 472      54696D65 
 472      00
 473 0870 4E6F2044 		.ascii	"No Disp\000"
 473      69737000 
 474 0878 00       		.space	1
 475 0879 496E7374 		.ascii	"InstCons\000"
 475      436F6E73 
 475      00
 476 0882 546E6B20 		.ascii	"Tnk Cons\000"
 476      436F6E73 
 476      00
 477 088b 546E6B20 		.ascii	"Tnk Fuel\000"
 477      4675656C 
 477      00
 478 0894 546E6B20 		.ascii	"Tnk Dist\000"
 478      44697374 
 478      00
 479 089d 44697374 		.ascii	"Dist2MT\000"
 479      324D5400 
 480 08a5 00       		.space	1
 481 08a6 54727020 		.ascii	"Trp Cons\000"
 481      436F6E73 
 481      00
 482 08af 54727020 		.ascii	"Trp Fuel\000"
 482      4675656C 
 482      00
 483 08b8 54727020 		.ascii	"Trp Dist\000"
 483      44697374 
 483      00
 484 08c1 42617474 		.ascii	"Batt Vlt\000"
 484      20566C74 
 484      00
 485 08ca 4F757420 		.ascii	"Out Cons\000"
 485      436F6E73 
 485      00
 486 08d3 4F757420 		.ascii	"Out Fuel\000"
 486      4675656C 
 486      00
 487 08dc 4F757420 		.ascii	"Out Dist\000"
 487      44697374 
 487      00
 488 08e5 43616E20 		.ascii	"Can Stat\000"
 488      53746174 
 488      00
 489 08ee 5049445F 		.ascii	"PID_SEC\000"
 489      53454300 
 490 08f6 00       		.space	1
 491 08f7 45636F20 		.ascii	"Eco Vis\000"
 491      56697300 
 492 08ff 00       		.space	1
 493              		.global	obd_std_strings
 494              		.align	2
 497              	obd_std_strings:
 498 0900 4F424432 		.ascii	"OBD2CARB\000"
 498      43415242 
 498      00
 499 0909 00       		.space	1
 500 090a 4F424445 		.ascii	"OBDEPA\000"
 500      504100
 501 0911 000000   		.space	3
 502 0914 4F424445 		.ascii	"OBDEPA&2\000"
 502      50412632 
 502      00
 503 091d 00       		.space	1
 504 091e 4F424431 		.ascii	"OBD1\000"
 504      00
 505 0923 00000000 		.space	5
 505      00
 506 0928 4E4F204F 		.ascii	"NO OBD\000"
 506      424400
 507 092f 000000   		.space	3
 508 0932 454F4244 		.ascii	"EOBD\000"
 508      00
 509 0937 00000000 		.space	5
 509      00
 510 093c 454F4244 		.ascii	"EOBD&ODB2\000"
 510      264F4442 
 510      3200
 511 0946 454F4244 		.ascii	"EOBD&EPA\000"
 511      26455041 
 511      00
 512 094f 00       		.space	1
 513 0950 45264550 		.ascii	"E&EPA&2\000"
 513      41263200 
 514 0958 0000     		.space	2
 515 095a 4A4F4244 		.ascii	"JOBD\000"
 515      00
 516 095f 00000000 		.space	5
 516      00
 517 0964 4A4F4244 		.ascii	"JOBD&2\000"
 517      263200
 518 096b 000000   		.space	3
 519 096e 4A26454F 		.ascii	"J&EOBD\000"
 519      424400
 520 0975 000000   		.space	3
 521 0978 4A26454F 		.ascii	"J&EOBD&2\000"
 521      42442632 
 521      00
 522 0981 00       		.space	1
 523 0982 4555524F 		.ascii	"EURO4B1\000"
 523      34423100 
 524 098a 0000     		.space	2
 525 098c 4555524F 		.ascii	"EURO5B2\000"
 525      35423200 
 526 0994 0000     		.space	2
 527 0996 4555524F 		.ascii	"EURO C\000"
 527      204300
 528 099d 000000   		.space	3
 529 09a0 454D4400 		.ascii	"EMD\000"
 530 09a4 00000000 		.space	6
 530      0000
 531              		.global	pid_reslen
 532 09aa 0000     		.align	2
 535              	pid_reslen:
 536 09ac 04       		.byte	4
 537 09ad 04       		.byte	4
 538 09ae 02       		.byte	2
 539 09af 02       		.byte	2
 540 09b0 01       		.byte	1
 541 09b1 01       		.byte	1
 542 09b2 01       		.byte	1
 543 09b3 01       		.byte	1
 544 09b4 01       		.byte	1
 545 09b5 01       		.byte	1
 546 09b6 01       		.byte	1
 547 09b7 01       		.byte	1
 548 09b8 02       		.byte	2
 549 09b9 01       		.byte	1
 550 09ba 01       		.byte	1
 551 09bb 01       		.byte	1
 552 09bc 02       		.byte	2
 553 09bd 01       		.byte	1
 554 09be 01       		.byte	1
 555 09bf 01       		.byte	1
 556 09c0 02       		.byte	2
 557 09c1 02       		.byte	2
 558 09c2 02       		.byte	2
 559 09c3 02       		.byte	2
 560 09c4 02       		.byte	2
 561 09c5 02       		.byte	2
 562 09c6 02       		.byte	2
 563 09c7 02       		.byte	2
 564 09c8 01       		.byte	1
 565 09c9 01       		.byte	1
 566 09ca 01       		.byte	1
 567 09cb 04       		.byte	4
 568 09cc 04       		.byte	4
 569 09cd 02       		.byte	2
 570 09ce 02       		.byte	2
 571 09cf 02       		.byte	2
 572 09d0 04       		.byte	4
 573 09d1 04       		.byte	4
 574 09d2 04       		.byte	4
 575 09d3 04       		.byte	4
 576 09d4 04       		.byte	4
 577 09d5 04       		.byte	4
 578 09d6 04       		.byte	4
 579 09d7 04       		.byte	4
 580 09d8 01       		.byte	1
 581 09d9 01       		.byte	1
 582 09da 01       		.byte	1
 583 09db 01       		.byte	1
 584 09dc 01       		.byte	1
 585 09dd 02       		.byte	2
 586 09de 02       		.byte	2
 587 09df 01       		.byte	1
 588 09e0 04       		.byte	4
 589 09e1 04       		.byte	4
 590 09e2 04       		.byte	4
 591 09e3 04       		.byte	4
 592 09e4 04       		.byte	4
 593 09e5 04       		.byte	4
 594 09e6 04       		.byte	4
 595 09e7 04       		.byte	4
 596 09e8 02       		.byte	2
 597 09e9 02       		.byte	2
 598 09ea 02       		.byte	2
 599 09eb 02       		.byte	2
 600 09ec 04       		.byte	4
 601 09ed 08       		.byte	8
 602 09ee 02       		.byte	2
 603 09ef 02       		.byte	2
 604 09f0 02       		.byte	2
 605 09f1 01       		.byte	1
 606 09f2 01       		.byte	1
 607 09f3 01       		.byte	1
 608 09f4 01       		.byte	1
 609 09f5 01       		.byte	1
 610 09f6 01       		.byte	1
 611 09f7 01       		.byte	1
 612 09f8 01       		.byte	1
 613 09f9 02       		.byte	2
 614 09fa 02       		.byte	2
 615              		.comm	ECU_Test,256,4
 616              		.comm	CanRecMsgObj,144,4
 617              		.comm	CanTxMsgObj,24,4
 618              		.global	Data_Control_Frame
 619 09fb 00       		.align	2
 622              	Data_Control_Frame:
 623 09fc 30       		.byte	48
 624 09fd 00       		.byte	0
 625 09fe 55       		.byte	85
 626 09ff 00       		.byte	0
 627 0a00 00       		.byte	0
 628 0a01 00       		.byte	0
 629 0a02 00       		.byte	0
 630 0a03 00       		.byte	0
 631              		.global	Data
 632              		.align	2
 635              	Data:
 636 0a04 02       		.byte	2
 637 0a05 01       		.byte	1
 638 0a06 20       		.byte	32
 639 0a07 00       		.byte	0
 640 0a08 00       		.byte	0
 641 0a09 00       		.byte	0
 642 0a0a 00       		.byte	0
 643 0a0b 00       		.byte	0
 644              		.global	data_uart
 645              		.align	2
 648              	data_uart:
 649 0a0c 4F424420 		.ascii	"OBD II TEST \012\015\000"
 649      49492054 
 649      45535420 
 649      0A0D00
 650              		.global	can_uart_error
 651 0a1b 00       		.align	2
 654              	can_uart_error:
 655 0a1c 4572726F 		.ascii	"Error While receiving CAN Packet\000"
 655      72205768 
 655      696C6520 
 655      72656365 
 655      6976696E 
 656              		.global	data_uart_end
 657 0a3d 000000   		.align	2
 660              	data_uart_end:
 661 0a40 3D3D3D3D 		.ascii	"====\012\015\000"
 661      0A0D00
 662              		.comm	can_uart_buffer,50,4
 663              		.comm	PID_Val,1,1
 664              		.comm	MODE_Val,1,1
 665              		.comm	Data_Len,1,1
 666              		.comm	ECU_Val,2,2
 667              		.global	Engine_RPM
 668 0a47 00       		.bss
 669              		.align	2
 672              	Engine_RPM:
 673 0004 00000000 		.space	4
 674              		.global	Vehicle_Speed
 675              		.align	2
 678              	Vehicle_Speed:
 679 0008 00000000 		.space	4
 680              		.global	Fuel_Level
 681              		.align	2
 684              	Fuel_Level:
 685 000c 00000000 		.space	4
 686              		.global	VIN_Flag
 689              	VIN_Flag:
 690 0010 00       		.space	1
 691              		.global	CAN_Rx_Flag
 694              	CAN_Rx_Flag:
 695 0011 00       		.space	1
 696              		.global	CAN_Tx_FLAG
 699              	CAN_Tx_FLAG:
 700 0012 00       		.space	1
 701              		.global	CAN_RX_Pkt_Count
 704              	CAN_RX_Pkt_Count:
 705 0013 00       		.space	1
 706              		.global	temp
 709              	temp:
 710 0014 00       		.space	1
 711              		.comm	CAN_RX_Buffer,30,4
 712              		.global	__aeabi_dadd
 713              		.global	__aeabi_dcmplt
 714 0015 000000   		.section	.rodata
 715              		.align	2
 716              	.LC7:
 717 0000 4D302050 		.ascii	"M0 P00 \012\015\000"
 717      3030200A 
 717      0D00
 718 000a 0000     		.align	2
 719              	.LC8:
 720 000c 4D302050 		.ascii	"M0 P20 \012\015\000"
 720      3230200A 
 720      0D00
 721 0016 0000     		.align	2
 722              	.LC9:
 723 0018 4D392050 		.ascii	"M9 P00 \012\015\000"
 723      3030200A 
 723      0D00
 724 0022 0000     		.align	2
 725              	.LC10:
 726 0024 4D392050 		.ascii	"M9 P02 \012\015\000"
 726      3032200A 
 726      0D00
 727 002e 0000     		.align	2
 728              	.LC11:
 729 0030 50494432 		.ascii	"PID2F=1 \012\015\000"
 729      463D3120 
 729      0A0D00
 730 003b 00       		.align	2
 731              	.LC12:
 732 003c 50494432 		.ascii	"PID2F=0 \012\015\000"
 732      463D3020 
 732      0A0D00
 733 0047 00       		.align	2
 734              	.LC0:
 735 0048 1F       		.byte	31
 736 0049 C0       		.byte	-64
 737 004a 00       		.byte	0
 738 004b 10       		.byte	16
 739 004c 00       		.byte	0
 740 004d 03       		.byte	3
 741 004e 01       		.byte	1
 742 004f 00       		.byte	0
 743              		.align	2
 744              	.LC1:
 745 0050 1F       		.byte	31
 746 0051 C0       		.byte	-64
 747 0052 00       		.byte	0
 748 0053 10       		.byte	16
 749 0054 00       		.byte	0
 750 0055 03       		.byte	3
 751 0056 01       		.byte	1
 752 0057 80       		.byte	-128
 753              		.align	2
 754              	.LC2:
 755 0058 A8       		.byte	-88
 756 0059 C0       		.byte	-64
 757 005a 00       		.byte	0
 758 005b 10       		.byte	16
 759 005c 00       		.byte	0
 760 005d 03       		.byte	3
 761 005e 01       		.byte	1
 762 005f 80       		.byte	-128
 763              		.align	2
 764              	.LC3:
 765 0060 02       		.byte	2
 766 0061 10       		.byte	16
 767 0062 03       		.byte	3
 768 0063 00       		.byte	0
 769 0064 00       		.byte	0
 770 0065 00       		.byte	0
 771 0066 00       		.byte	0
 772 0067 00       		.byte	0
 773              		.align	2
 774              	.LC4:
 775 0068 03       		.byte	3
 776 0069 22       		.byte	34
 777 006a 22       		.byte	34
 778 006b 03       		.byte	3
 779 006c 00       		.byte	0
 780 006d 00       		.byte	0
 781 006e 00       		.byte	0
 782 006f 00       		.byte	0
 783              		.align	2
 784              	.LC5:
 785 0070 03       		.byte	3
 786 0071 22       		.byte	34
 787 0072 22       		.byte	34
 788 0073 61       		.byte	97
 789 0074 00       		.byte	0
 790 0075 00       		.byte	0
 791 0076 00       		.byte	0
 792 0077 00       		.byte	0
 793              		.align	2
 794              	.LC6:
 795 0078 03       		.byte	3
 796 0079 22       		.byte	34
 797 007a F1       		.byte	-15
 798 007b 90       		.byte	-112
 799 007c 00       		.byte	0
 800 007d 00       		.byte	0
 801 007e 00       		.byte	0
 802 007f 00       		.byte	0
 803              		.section	.text.main,"ax",%progbits
 804              		.align	2
 805              		.global	main
 806              		.thumb
 807              		.thumb_func
 809              	main:
 810              	.LFB117:
 811              		.file 1 "../Main.c"
   1:../Main.c     **** /*
   2:../Main.c     ****  * Main.c
   3:../Main.c     ****  *
   4:../Main.c     ****  *  Created on: May 19, 2014
   5:../Main.c     ****  *      Author: Aqeel
   6:../Main.c     ****  */
   7:../Main.c     **** #include <DAVE3.h>			//Declarations from DAVE3 Code Generation (includes SFR declaration)
   8:../Main.c     **** #include "Timer.h"
   9:../Main.c     **** #include "OBDIICANBS.h"
  10:../Main.c     **** #include <stdio.h>
  11:../Main.c     **** //#include <stdlib.h>
  12:../Main.c     **** #include <string.h>
  13:../Main.c     **** #include <newlib.h>
  14:../Main.c     **** #define Seat_Leon
  15:../Main.c     **** //#define Audi
  16:../Main.c     **** //#define Sniffer
  17:../Main.c     **** #ifdef Sniffer
  18:../Main.c     **** uint8_t Sniffer_Buffer[30];
  19:../Main.c     **** #else
  20:../Main.c     **** uint8_t CAN_RX_Buffer[30];
  21:../Main.c     **** #endif
  22:../Main.c     **** 
  23:../Main.c     **** void delay(void);
  24:../Main.c     **** uint8_t StoreData(uint8_t Mode);
  25:../Main.c     **** void PrintData(uint8_t Param,uint8_t ECU_Index);
  26:../Main.c     **** void print_Uart(char Str[]);
  27:../Main.c     **** bool is_pid_supported(unsigned char pid, unsigned char mode,uint8_t ECU_Index);
  28:../Main.c     **** //void TimerOneSec(void * args);
  29:../Main.c     **** //void TimerInt(void * args);
  30:../Main.c     **** //void TimerWaitISR (void * args);
  31:../Main.c     **** 
  32:../Main.c     **** uint8_t Get_PID(uint16_t TimeToWait,uint8_t Mode_Req,uint8_t PID_Req,uint8_t ShowOP);
  33:../Main.c     **** uint8_t Get_VIN(uint8_t TimeToWait);
  34:../Main.c     **** void Send_Data(uint32_t Id,uint8_t Data[]);
  35:../Main.c     **** //CAN001_MessageHandleType CanTxMsgObj;
  36:../Main.c     **** int main(void)
  37:../Main.c     **** {
 812              		.loc 1 37 0
 813              		.cfi_startproc
 814              		@ args = 0, pretend = 0, frame = 152
 815              		@ frame_needed = 1, uses_anonymous_args = 0
 816 0000 80B5     		push	{r7, lr}
 817              	.LCFI0:
 818              		.cfi_def_cfa_offset 8
 819              		.cfi_offset 7, -8
 820              		.cfi_offset 14, -4
 821 0002 A6B0     		sub	sp, sp, #152
 822              	.LCFI1:
 823              		.cfi_def_cfa_offset 160
 824 0004 00AF     		add	r7, sp, #0
 825              	.LCFI2:
 826              		.cfi_def_cfa_register 7
  38:../Main.c     **** 	status_t status;		// Declaration of return variable for DAVE3 APIs (toggle comment if required)
  39:../Main.c     **** 	uint8_t Data_USD1[8] 	= 	{0x1F,0xC0,0x00,0x10,0x00,0x03,0x01,0x00};	//1F C0 00 10 00 03 01 00
 827              		.loc 1 39 0
 828 0006 40F20002 		movw	r2, #:lower16:.LC0
 829 000a C0F20002 		movt	r2, #:upper16:.LC0
 830 000e 07F13403 		add	r3, r7, #52
 831 0012 1068     		ldr	r0, [r2, #0]	@ unaligned
 832 0014 5168     		ldr	r1, [r2, #4]	@ unaligned
 833 0016 03C3     		stmia	r3!, {r0, r1}
  40:../Main.c     **** 	uint8_t Data_USD2[8] 	= 	{0x1F,0xC0,0x00,0x10,0x00,0x03,0x01,0x80};	//1F C0 00 10 00 03 01 80
 834              		.loc 1 40 0
 835 0018 40F20002 		movw	r2, #:lower16:.LC1
 836 001c C0F20002 		movt	r2, #:upper16:.LC1
 837 0020 07F12C03 		add	r3, r7, #44
 838 0024 1068     		ldr	r0, [r2, #0]	@ unaligned
 839 0026 5168     		ldr	r1, [r2, #4]	@ unaligned
 840 0028 03C3     		stmia	r3!, {r0, r1}
  41:../Main.c     **** 	uint8_t Data_USD3[8] 	= 	{0xA8,0xC0,0x00,0x10,0x00,0x03,0x01,0x80};	//A8 C0 00 10 00 03 01 80
 841              		.loc 1 41 0
 842 002a 40F20002 		movw	r2, #:lower16:.LC2
 843 002e C0F20002 		movt	r2, #:upper16:.LC2
 844 0032 07F12403 		add	r3, r7, #36
 845 0036 1068     		ldr	r0, [r2, #0]	@ unaligned
 846 0038 5168     		ldr	r1, [r2, #4]	@ unaligned
 847 003a 03C3     		stmia	r3!, {r0, r1}
  42:../Main.c     **** 	uint8_t Data_DSC[8]  	= 	{0x02,0x10,0x03,0x00,0x00,0x00,0x00,0x00};	//02 10 03 00 00 00 00 00
 848              		.loc 1 42 0
 849 003c 40F20002 		movw	r2, #:lower16:.LC3
 850 0040 C0F20002 		movt	r2, #:upper16:.LC3
 851 0044 07F11C03 		add	r3, r7, #28
 852 0048 1068     		ldr	r0, [r2, #0]	@ unaligned
 853 004a 5168     		ldr	r1, [r2, #4]	@ unaligned
 854 004c 03C3     		stmia	r3!, {r0, r1}
  43:../Main.c     **** 	uint8_t Data_ReadOdo[8] = 	{0x03,0x22,0x22,0x03,0x00,0x00,0x00,0x00};	//03 22 22 03 00 00 00 00
 855              		.loc 1 43 0
 856 004e 40F20002 		movw	r2, #:lower16:.LC4
 857 0052 C0F20002 		movt	r2, #:upper16:.LC4
 858 0056 07F11403 		add	r3, r7, #20
 859 005a 1068     		ldr	r0, [r2, #0]	@ unaligned
 860 005c 5168     		ldr	r1, [r2, #4]	@ unaligned
 861 005e 03C3     		stmia	r3!, {r0, r1}
  44:../Main.c     **** 	uint8_t Data_ReadUFO[8] = 	{0x03,0x22,0x22,0x61,0x00,0x00,0x00,0x00};	//03 22 22 61 00 00 00 00 //
 862              		.loc 1 44 0
 863 0060 40F20002 		movw	r2, #:lower16:.LC5
 864 0064 C0F20002 		movt	r2, #:upper16:.LC5
 865 0068 07F10C03 		add	r3, r7, #12
 866 006c 1068     		ldr	r0, [r2, #0]	@ unaligned
 867 006e 5168     		ldr	r1, [r2, #4]	@ unaligned
 868 0070 03C3     		stmia	r3!, {r0, r1}
  45:../Main.c     **** 	uint8_t Data_ReadFIN[8] = 	{0x03,0x22,0xF1,0x90,0x00,0x00,0x00,0x00};	//03 22 F1 90 00 00 00 00	//
 869              		.loc 1 45 0
 870 0072 40F20002 		movw	r2, #:lower16:.LC6
 871 0076 C0F20002 		movt	r2, #:upper16:.LC6
 872 007a 07F10403 		add	r3, r7, #4
 873 007e 1068     		ldr	r0, [r2, #0]	@ unaligned
 874 0080 5168     		ldr	r1, [r2, #4]	@ unaligned
 875 0082 03C3     		stmia	r3!, {r0, r1}
  46:../Main.c     **** 
  47:../Main.c     **** 	uint8_t Btn1;
  48:../Main.c     **** //	uint8_t VIN_Supp[] = "VIN NOT Supported.... \n\r";
  49:../Main.c     **** //	uint8_t CALID_Supp[] = "CALID NOT Supported...\n\r";
  50:../Main.c     **** 	uint8_t ECU_Index=0;
 876              		.loc 1 50 0
 877 0084 4FF00003 		mov	r3, #0
 878 0088 87F84730 		strb	r3, [r7, #71]
  51:../Main.c     **** 
  52:../Main.c     **** 	DAVE_Init();			// Initialization of DAVE Apps
 879              		.loc 1 52 0
 880 008c FFF7FEFF 		bl	DAVE_Init
  53:../Main.c     ****     TimerId = SYSTM001_CreateTimer(50,SYSTM001_ONE_SHOT,TimerInt,NULL);
 881              		.loc 1 53 0
 882 0090 4FF03200 		mov	r0, #50
 883 0094 4FF00001 		mov	r1, #0
 884 0098 40F20002 		movw	r2, #:lower16:TimerInt
 885 009c C0F20002 		movt	r2, #:upper16:TimerInt
 886 00a0 4FF00003 		mov	r3, #0
 887 00a4 FFF7FEFF 		bl	SYSTM001_CreateTimer
 888 00a8 0246     		mov	r2, r0
 889 00aa 40F20003 		movw	r3, #:lower16:TimerId
 890 00ae C0F20003 		movt	r3, #:upper16:TimerId
 891 00b2 1A60     		str	r2, [r3, #0]
  54:../Main.c     **** //    TimerId1Sec = SYSTM001_CreateTimer(2000,SYSTM001_PERIODIC,TimerOneSec,NULL);
  55:../Main.c     ****     Timer_WaitId=SYSTM001_CreateTimer(4000,SYSTM001_ONE_SHOT,TimerWaitISR,NULL);
 892              		.loc 1 55 0
 893 00b4 4FF47A60 		mov	r0, #4000
 894 00b8 4FF00001 		mov	r1, #0
 895 00bc 40F20002 		movw	r2, #:lower16:TimerWaitISR
 896 00c0 C0F20002 		movt	r2, #:upper16:TimerWaitISR
 897 00c4 4FF00003 		mov	r3, #0
 898 00c8 FFF7FEFF 		bl	SYSTM001_CreateTimer
 899 00cc 0246     		mov	r2, r0
 900 00ce 40F20003 		movw	r3, #:lower16:Timer_WaitId
 901 00d2 C0F20003 		movt	r3, #:upper16:Timer_WaitId
 902 00d6 1A60     		str	r2, [r3, #0]
  56:../Main.c     **** 
  57:../Main.c     **** 
  58:../Main.c     **** 
  59:../Main.c     ****     CanTxMsgObj.Identifier=FUNC_PID_REQUEST;
 903              		.loc 1 59 0
 904 00d8 40F20003 		movw	r3, #:lower16:CanTxMsgObj
 905 00dc C0F20003 		movt	r3, #:upper16:CanTxMsgObj
 906 00e0 40F2DF72 		movw	r2, #2015
 907 00e4 1A60     		str	r2, [r3, #0]
  60:../Main.c     **** 	CanTxMsgObj.DataLength=8;
 908              		.loc 1 60 0
 909 00e6 40F20003 		movw	r3, #:lower16:CanTxMsgObj
 910 00ea C0F20003 		movt	r3, #:upper16:CanTxMsgObj
 911 00ee 4FF00802 		mov	r2, #8
 912 00f2 9A72     		strb	r2, [r3, #10]
  61:../Main.c     **** 	CanTxMsgObj.data[0]=Data[0];
 913              		.loc 1 61 0
 914 00f4 40F20003 		movw	r3, #:lower16:Data
 915 00f8 C0F20003 		movt	r3, #:upper16:Data
 916 00fc 1A78     		ldrb	r2, [r3, #0]	@ zero_extendqisi2
 917 00fe 40F20003 		movw	r3, #:lower16:CanTxMsgObj
 918 0102 C0F20003 		movt	r3, #:upper16:CanTxMsgObj
 919 0106 DA72     		strb	r2, [r3, #11]
  62:../Main.c     **** 	CanTxMsgObj.data[1]=Data[1];
 920              		.loc 1 62 0
 921 0108 40F20003 		movw	r3, #:lower16:Data
 922 010c C0F20003 		movt	r3, #:upper16:Data
 923 0110 5A78     		ldrb	r2, [r3, #1]	@ zero_extendqisi2
 924 0112 40F20003 		movw	r3, #:lower16:CanTxMsgObj
 925 0116 C0F20003 		movt	r3, #:upper16:CanTxMsgObj
 926 011a 1A73     		strb	r2, [r3, #12]
  63:../Main.c     **** 	CanTxMsgObj.data[2]=Data[2];
 927              		.loc 1 63 0
 928 011c 40F20003 		movw	r3, #:lower16:Data
 929 0120 C0F20003 		movt	r3, #:upper16:Data
 930 0124 9A78     		ldrb	r2, [r3, #2]	@ zero_extendqisi2
 931 0126 40F20003 		movw	r3, #:lower16:CanTxMsgObj
 932 012a C0F20003 		movt	r3, #:upper16:CanTxMsgObj
 933 012e 5A73     		strb	r2, [r3, #13]
  64:../Main.c     **** 	CanTxMsgObj.data[3]=Data[3];
 934              		.loc 1 64 0
 935 0130 40F20003 		movw	r3, #:lower16:Data
 936 0134 C0F20003 		movt	r3, #:upper16:Data
 937 0138 DA78     		ldrb	r2, [r3, #3]	@ zero_extendqisi2
 938 013a 40F20003 		movw	r3, #:lower16:CanTxMsgObj
 939 013e C0F20003 		movt	r3, #:upper16:CanTxMsgObj
 940 0142 9A73     		strb	r2, [r3, #14]
  65:../Main.c     **** 	CanTxMsgObj.data[4]=Data[4];
 941              		.loc 1 65 0
 942 0144 40F20003 		movw	r3, #:lower16:Data
 943 0148 C0F20003 		movt	r3, #:upper16:Data
 944 014c 1A79     		ldrb	r2, [r3, #4]	@ zero_extendqisi2
 945 014e 40F20003 		movw	r3, #:lower16:CanTxMsgObj
 946 0152 C0F20003 		movt	r3, #:upper16:CanTxMsgObj
 947 0156 DA73     		strb	r2, [r3, #15]
  66:../Main.c     **** 	CanTxMsgObj.data[5]=Data[5];
 948              		.loc 1 66 0
 949 0158 40F20003 		movw	r3, #:lower16:Data
 950 015c C0F20003 		movt	r3, #:upper16:Data
 951 0160 5A79     		ldrb	r2, [r3, #5]	@ zero_extendqisi2
 952 0162 40F20003 		movw	r3, #:lower16:CanTxMsgObj
 953 0166 C0F20003 		movt	r3, #:upper16:CanTxMsgObj
 954 016a 1A74     		strb	r2, [r3, #16]
  67:../Main.c     **** 	CanTxMsgObj.data[6]=Data[6];
 955              		.loc 1 67 0
 956 016c 40F20003 		movw	r3, #:lower16:Data
 957 0170 C0F20003 		movt	r3, #:upper16:Data
 958 0174 9A79     		ldrb	r2, [r3, #6]	@ zero_extendqisi2
 959 0176 40F20003 		movw	r3, #:lower16:CanTxMsgObj
 960 017a C0F20003 		movt	r3, #:upper16:CanTxMsgObj
 961 017e 5A74     		strb	r2, [r3, #17]
  68:../Main.c     **** 	CanTxMsgObj.data[7]=Data[7];
 962              		.loc 1 68 0
 963 0180 40F20003 		movw	r3, #:lower16:Data
 964 0184 C0F20003 		movt	r3, #:upper16:Data
 965 0188 DA79     		ldrb	r2, [r3, #7]	@ zero_extendqisi2
 966 018a 40F20003 		movw	r3, #:lower16:CanTxMsgObj
 967 018e C0F20003 		movt	r3, #:upper16:CanTxMsgObj
 968 0192 9A74     		strb	r2, [r3, #18]
  69:../Main.c     **** 	CanTxMsgObj.IDExten=STANDARDTYPE;
 969              		.loc 1 69 0
 970 0194 40F20003 		movw	r3, #:lower16:CanTxMsgObj
 971 0198 C0F20003 		movt	r3, #:upper16:CanTxMsgObj
 972 019c 4FF00002 		mov	r2, #0
 973 01a0 1A72     		strb	r2, [r3, #8]
  70:../Main.c     **** 	CanTxMsgObj.MsgObjEN=CAN001_ENABLE;
 974              		.loc 1 70 0
 975 01a2 40F20003 		movw	r3, #:lower16:CanTxMsgObj
 976 01a6 C0F20003 		movt	r3, #:upper16:CanTxMsgObj
 977 01aa 4FF00102 		mov	r2, #1
 978 01ae DA74     		strb	r2, [r3, #19]
  71:../Main.c     **** 	CanTxMsgObj.MsgObjType=TRANSMSGOBJ;
 979              		.loc 1 71 0
 980 01b0 40F20003 		movw	r3, #:lower16:CanTxMsgObj
 981 01b4 C0F20003 		movt	r3, #:upper16:CanTxMsgObj
 982 01b8 4FF00102 		mov	r2, #1
 983 01bc 1A75     		strb	r2, [r3, #20]
  72:../Main.c     **** 	CanTxMsgObj.IDMask=0x00;
 984              		.loc 1 72 0
 985 01be 40F20003 		movw	r3, #:lower16:CanTxMsgObj
 986 01c2 C0F20003 		movt	r3, #:upper16:CanTxMsgObj
 987 01c6 4FF00002 		mov	r2, #0
 988 01ca 5A60     		str	r2, [r3, #4]
  73:../Main.c     **** 	CanTxMsgObj.IDExten=0x00;
 989              		.loc 1 73 0
 990 01cc 40F20003 		movw	r3, #:lower16:CanTxMsgObj
 991 01d0 C0F20003 		movt	r3, #:upper16:CanTxMsgObj
 992 01d4 4FF00002 		mov	r2, #0
 993 01d8 1A72     		strb	r2, [r3, #8]
  74:../Main.c     **** 
  75:../Main.c     **** 	status=CAN001_ConfigMsgObj(&CAN001_Handle0,&CanTxMsgObj,1U);
 994              		.loc 1 75 0
 995 01da 40F20000 		movw	r0, #:lower16:CAN001_Handle0
 996 01de C0F20000 		movt	r0, #:upper16:CAN001_Handle0
 997 01e2 40F20001 		movw	r1, #:lower16:CanTxMsgObj
 998 01e6 C0F20001 		movt	r1, #:upper16:CanTxMsgObj
 999 01ea 4FF00102 		mov	r2, #1
 1000 01ee FFF7FEFF 		bl	CAN001_ConfigMsgObj
 1001 01f2 3864     		str	r0, [r7, #64]
  76:../Main.c     **** 	  /* Update data value to be transmitted by  Node "Request" in message object 1 (LM01) with ID 0x2
  77:../Main.c     **** 	  CAN001_UpdateMODataRegisters(&CAN001_Handle0,1,8,Data);
 1002              		.loc 1 77 0
 1003 01f4 40F20000 		movw	r0, #:lower16:CAN001_Handle0
 1004 01f8 C0F20000 		movt	r0, #:upper16:CAN001_Handle0
 1005 01fc 4FF00101 		mov	r1, #1
 1006 0200 4FF00802 		mov	r2, #8
 1007 0204 40F20003 		movw	r3, #:lower16:Data
 1008 0208 C0F20003 		movt	r3, #:upper16:Data
 1009 020c FFF7FEFF 		bl	CAN001_UpdateMODataRegisters
  78:../Main.c     **** 	  /* Send Data frame with ID 0x255 on chip internal CAN bus (Loop-Back Mode) */
  79:../Main.c     **** //	  status=CAN001_SendDataFrame(&CAN001_Handle0,1); //
  80:../Main.c     **** 
  81:../Main.c     **** 	  Btn1 = IO004_ReadPin(IO004_Handle1);
 1010              		.loc 1 81 0
 1011 0210 40F20003 		movw	r3, #:lower16:IO004_Handle1
 1012 0214 C0F20003 		movt	r3, #:upper16:IO004_Handle1
 1013 0218 5B68     		ldr	r3, [r3, #4]
 1014 021a 5A6A     		ldr	r2, [r3, #36]
 1015 021c 40F20003 		movw	r3, #:lower16:IO004_Handle1
 1016 0220 C0F20003 		movt	r3, #:upper16:IO004_Handle1
 1017 0224 5B78     		ldrb	r3, [r3, #1]	@ zero_extendqisi2
 1018 0226 22FA03F3 		lsr	r3, r2, r3
 1019 022a DBB2     		uxtb	r3, r3
 1020 022c 03F00103 		and	r3, r3, #1
 1021 0230 87F83F30 		strb	r3, [r7, #63]
  82:../Main.c     **** 	  IO004_SetOutputValue(IO004_Handle0,1);
 1022              		.loc 1 82 0
 1023 0234 40F20003 		movw	r3, #:lower16:IO004_Handle0
 1024 0238 C0F20003 		movt	r3, #:upper16:IO004_Handle0
 1025 023c 5A68     		ldr	r2, [r3, #4]
 1026 023e 40F20003 		movw	r3, #:lower16:IO004_Handle0
 1027 0242 C0F20003 		movt	r3, #:upper16:IO004_Handle0
 1028 0246 5B78     		ldrb	r3, [r3, #1]	@ zero_extendqisi2
 1029 0248 4FF00101 		mov	r1, #1
 1030 024c 01FA03F3 		lsl	r3, r1, r3
 1031 0250 5360     		str	r3, [r2, #4]
  83:../Main.c     **** 	  IO004_SetOutputValue(IO004_Handle2,1);
 1032              		.loc 1 83 0
 1033 0252 40F20003 		movw	r3, #:lower16:IO004_Handle2
 1034 0256 C0F20003 		movt	r3, #:upper16:IO004_Handle2
 1035 025a 5A68     		ldr	r2, [r3, #4]
 1036 025c 40F20003 		movw	r3, #:lower16:IO004_Handle2
 1037 0260 C0F20003 		movt	r3, #:upper16:IO004_Handle2
 1038 0264 5B78     		ldrb	r3, [r3, #1]	@ zero_extendqisi2
 1039 0266 4FF00101 		mov	r1, #1
 1040 026a 01FA03F3 		lsl	r3, r1, r3
 1041 026e 5360     		str	r3, [r2, #4]
 1042              	.LBB2:
  84:../Main.c     **** //	  printf("hello world");
  85:../Main.c     **** //	  UART001_WriteDataBytes(&UART001_Handle0, (uint8_t*)&data_uart, (uint32_t)strlen(data_uart));
  86:../Main.c     **** #ifndef Sniffer
  87:../Main.c     **** 	  for(double i=0;i<5000;i++);
 1043              		.loc 1 87 0
 1044 0270 4FF00002 		mov	r2, #0
 1045 0274 4FF00003 		mov	r3, #0
 1046 0278 C7E92423 		strd	r2, [r7, #144]
 1047 027c 0DE0     		b	.L2
 1048              	.L3:
 1049              		.loc 1 87 0 is_stmt 0 discriminator 2
 1050 027e D7E92401 		ldrd	r0, [r7, #144]
 1051 0282 4FF00002 		mov	r2, #0
 1052 0286 4FF00003 		mov	r3, #0
 1053 028a C3F6F073 		movt	r3, 16368
 1054 028e FFF7FEFF 		bl	__aeabi_dadd
 1055 0292 0246     		mov	r2, r0
 1056 0294 0B46     		mov	r3, r1
 1057 0296 C7E92423 		strd	r2, [r7, #144]
 1058              	.L2:
 1059              		.loc 1 87 0 discriminator 1
 1060 029a D7E92401 		ldrd	r0, [r7, #144]
 1061 029e 0FF26043 		adr	r3, .L26
 1062 02a2 D3E90023 		ldrd	r2, [r3]
 1063 02a6 FFF7FEFF 		bl	__aeabi_dcmplt
 1064 02aa 0346     		mov	r3, r0
 1065 02ac 002B     		cmp	r3, #0
 1066 02ae E6D1     		bne	.L3
 1067              	.LBE2:
  88:../Main.c     **** 	  print_Uart("M0 P00 \n\r");
 1068              		.loc 1 88 0 is_stmt 1
 1069 02b0 40F20000 		movw	r0, #:lower16:.LC7
 1070 02b4 C0F20000 		movt	r0, #:upper16:.LC7
 1071 02b8 FFF7FEFF 		bl	print_Uart
  89:../Main.c     **** 	  Get_PID(1000,MODE_CURR_DATA,PID_SUPPORT00,PRINT_NOTHING);
 1072              		.loc 1 89 0
 1073 02bc 4FF47A70 		mov	r0, #1000
 1074 02c0 4FF00101 		mov	r1, #1
 1075 02c4 4FF00002 		mov	r2, #0
 1076 02c8 4FF00003 		mov	r3, #0
 1077 02cc FFF7FEFF 		bl	Get_PID
 1078              	.LBB3:
  90:../Main.c     **** 		for(double i=0;i<5000;i++);
 1079              		.loc 1 90 0
 1080 02d0 4FF00002 		mov	r2, #0
 1081 02d4 4FF00003 		mov	r3, #0
 1082 02d8 C7E92223 		strd	r2, [r7, #136]
 1083 02dc 0DE0     		b	.L4
 1084              	.L5:
 1085              		.loc 1 90 0 is_stmt 0 discriminator 2
 1086 02de D7E92201 		ldrd	r0, [r7, #136]
 1087 02e2 4FF00002 		mov	r2, #0
 1088 02e6 4FF00003 		mov	r3, #0
 1089 02ea C3F6F073 		movt	r3, 16368
 1090 02ee FFF7FEFF 		bl	__aeabi_dadd
 1091 02f2 0246     		mov	r2, r0
 1092 02f4 0B46     		mov	r3, r1
 1093 02f6 C7E92223 		strd	r2, [r7, #136]
 1094              	.L4:
 1095              		.loc 1 90 0 discriminator 1
 1096 02fa D7E92201 		ldrd	r0, [r7, #136]
 1097 02fe 0FF20043 		adr	r3, .L26
 1098 0302 D3E90023 		ldrd	r2, [r3]
 1099 0306 FFF7FEFF 		bl	__aeabi_dcmplt
 1100 030a 0346     		mov	r3, r0
 1101 030c 002B     		cmp	r3, #0
 1102 030e E6D1     		bne	.L5
 1103              	.LBE3:
  91:../Main.c     **** 	  print_Uart("M0 P20 \n\r");
 1104              		.loc 1 91 0 is_stmt 1
 1105 0310 40F20000 		movw	r0, #:lower16:.LC8
 1106 0314 C0F20000 		movt	r0, #:upper16:.LC8
 1107 0318 FFF7FEFF 		bl	print_Uart
  92:../Main.c     **** 	  Get_PID(1000,MODE_CURR_DATA,PID_SUPPORT20,PRINT_NOTHING);
 1108              		.loc 1 92 0
 1109 031c 4FF47A70 		mov	r0, #1000
 1110 0320 4FF00101 		mov	r1, #1
 1111 0324 4FF02002 		mov	r2, #32
 1112 0328 4FF00003 		mov	r3, #0
 1113 032c FFF7FEFF 		bl	Get_PID
 1114              	.LBB4:
  93:../Main.c     **** 	for(double i=0;i<5000;i++);
 1115              		.loc 1 93 0
 1116 0330 4FF00002 		mov	r2, #0
 1117 0334 4FF00003 		mov	r3, #0
 1118 0338 C7E92023 		strd	r2, [r7, #128]
 1119 033c 0DE0     		b	.L6
 1120              	.L7:
 1121              		.loc 1 93 0 is_stmt 0 discriminator 2
 1122 033e D7E92001 		ldrd	r0, [r7, #128]
 1123 0342 4FF00002 		mov	r2, #0
 1124 0346 4FF00003 		mov	r3, #0
 1125 034a C3F6F073 		movt	r3, 16368
 1126 034e FFF7FEFF 		bl	__aeabi_dadd
 1127 0352 0246     		mov	r2, r0
 1128 0354 0B46     		mov	r3, r1
 1129 0356 C7E92023 		strd	r2, [r7, #128]
 1130              	.L6:
 1131              		.loc 1 93 0 discriminator 1
 1132 035a D7E92001 		ldrd	r0, [r7, #128]
 1133 035e E8A3     		adr	r3, .L26
 1134 0360 D3E90023 		ldrd	r2, [r3]
 1135 0364 FFF7FEFF 		bl	__aeabi_dcmplt
 1136 0368 0346     		mov	r3, r0
 1137 036a 002B     		cmp	r3, #0
 1138 036c E7D1     		bne	.L7
 1139              	.LBE4:
  94:../Main.c     **** 		print_Uart("M9 P00 \n\r");
 1140              		.loc 1 94 0 is_stmt 1
 1141 036e 40F20000 		movw	r0, #:lower16:.LC9
 1142 0372 C0F20000 		movt	r0, #:upper16:.LC9
 1143 0376 FFF7FEFF 		bl	print_Uart
  95:../Main.c     **** 		Get_PID(1000,MODE_REQ_VIN,PID_SUPPORT00,PRINT_NOTHING);
 1144              		.loc 1 95 0
 1145 037a 4FF47A70 		mov	r0, #1000
 1146 037e 4FF00901 		mov	r1, #9
 1147 0382 4FF00002 		mov	r2, #0
 1148 0386 4FF00003 		mov	r3, #0
 1149 038a FFF7FEFF 		bl	Get_PID
 1150              	.LBB5:
  96:../Main.c     **** 	for(double i=0;i<5000;i++);
 1151              		.loc 1 96 0
 1152 038e 4FF00002 		mov	r2, #0
 1153 0392 4FF00003 		mov	r3, #0
 1154 0396 C7E91E23 		strd	r2, [r7, #120]
 1155 039a 0DE0     		b	.L8
 1156              	.L9:
 1157              		.loc 1 96 0 is_stmt 0 discriminator 2
 1158 039c D7E91E01 		ldrd	r0, [r7, #120]
 1159 03a0 4FF00002 		mov	r2, #0
 1160 03a4 4FF00003 		mov	r3, #0
 1161 03a8 C3F6F073 		movt	r3, 16368
 1162 03ac FFF7FEFF 		bl	__aeabi_dadd
 1163 03b0 0246     		mov	r2, r0
 1164 03b2 0B46     		mov	r3, r1
 1165 03b4 C7E91E23 		strd	r2, [r7, #120]
 1166              	.L8:
 1167              		.loc 1 96 0 discriminator 1
 1168 03b8 D7E91E01 		ldrd	r0, [r7, #120]
 1169 03bc D0A3     		adr	r3, .L26
 1170 03be D3E90023 		ldrd	r2, [r3]
 1171 03c2 FFF7FEFF 		bl	__aeabi_dcmplt
 1172 03c6 0346     		mov	r3, r0
 1173 03c8 002B     		cmp	r3, #0
 1174 03ca E7D1     		bne	.L9
 1175              	.LBE5:
  97:../Main.c     **** 		print_Uart("M9 P02 \n\r");
 1176              		.loc 1 97 0 is_stmt 1
 1177 03cc 40F20000 		movw	r0, #:lower16:.LC10
 1178 03d0 C0F20000 		movt	r0, #:upper16:.LC10
 1179 03d4 FFF7FEFF 		bl	print_Uart
  98:../Main.c     **** 		Get_PID(2000,MODE_REQ_VIN,VIN_NUM,PRINT_ECU_INFO);
 1180              		.loc 1 98 0
 1181 03d8 4FF4FA60 		mov	r0, #2000
 1182 03dc 4FF00901 		mov	r1, #9
 1183 03e0 4FF00202 		mov	r2, #2
 1184 03e4 4FF00103 		mov	r3, #1
 1185 03e8 FFF7FEFF 		bl	Get_PID
  99:../Main.c     **** //		for(double i=0;i<5000;i++);
 100:../Main.c     **** //			print_Uart("M9 P04 \n\r");
 101:../Main.c     **** //			Get_PID(2000,MODE_REQ_VIN,CAL_ID,PRINT_ECU_INFO);
 102:../Main.c     **** 
 103:../Main.c     **** 		if(is_pid_supported(FUEL_LEVEL, MODE_CURR_DATA,0)||(is_pid_supported(FUEL_LEVEL, MODE_CURR_DATA,1
 1186              		.loc 1 103 0
 1187 03ec 4FF02F00 		mov	r0, #47
 1188 03f0 4FF00101 		mov	r1, #1
 1189 03f4 4FF00002 		mov	r2, #0
 1190 03f8 FFF7FEFF 		bl	is_pid_supported
 1191 03fc 0346     		mov	r3, r0
 1192 03fe 002B     		cmp	r3, #0
 1193 0400 0AD1     		bne	.L10
 1194              		.loc 1 103 0 is_stmt 0 discriminator 1
 1195 0402 4FF02F00 		mov	r0, #47
 1196 0406 4FF00101 		mov	r1, #1
 1197 040a 4FF00102 		mov	r2, #1
 1198 040e FFF7FEFF 		bl	is_pid_supported
 1199 0412 0346     		mov	r3, r0
 1200 0414 002B     		cmp	r3, #0
 1201 0416 06D0     		beq	.L11
 1202              	.L10:
 104:../Main.c     **** 			print_Uart("PID2F=1 \n\r");
 1203              		.loc 1 104 0 is_stmt 1
 1204 0418 40F20000 		movw	r0, #:lower16:.LC11
 1205 041c C0F20000 		movt	r0, #:upper16:.LC11
 1206 0420 FFF7FEFF 		bl	print_Uart
 1207 0424 05E0     		b	.L12
 1208              	.L11:
 105:../Main.c     **** 		else
 106:../Main.c     **** 			print_Uart("PID2F=0 \n\r");
 1209              		.loc 1 106 0
 1210 0426 40F20000 		movw	r0, #:lower16:.LC12
 1211 042a C0F20000 		movt	r0, #:upper16:.LC12
 1212 042e FFF7FEFF 		bl	print_Uart
 1213              	.L12:
 1214              	.LBB6:
 107:../Main.c     **** #else
 108:../Main.c     **** 		  print_Uart("Sniffer \n\r");
 109:../Main.c     **** #endif
 110:../Main.c     **** 	  while(1){
 111:../Main.c     **** //		  if(!(IO004_ReadPin(IO004_Handle1)))
 112:../Main.c     **** //		SYSTM001_StartTimer (TimerId1Sec);
 113:../Main.c     **** //		  else if()
 114:../Main.c     **** #ifndef Sniffer
 115:../Main.c     **** 		  {
 116:../Main.c     **** 				for(double i=0;i<5000;i++);
 1215              		.loc 1 116 0
 1216 0432 4FF00002 		mov	r2, #0
 1217 0436 4FF00003 		mov	r3, #0
 1218 043a C7E91C23 		strd	r2, [r7, #112]
 1219 043e 0DE0     		b	.L13
 1220              	.L14:
 1221              		.loc 1 116 0 is_stmt 0 discriminator 2
 1222 0440 D7E91C01 		ldrd	r0, [r7, #112]
 1223 0444 4FF00002 		mov	r2, #0
 1224 0448 4FF00003 		mov	r3, #0
 1225 044c C3F6F073 		movt	r3, 16368
 1226 0450 FFF7FEFF 		bl	__aeabi_dadd
 1227 0454 0246     		mov	r2, r0
 1228 0456 0B46     		mov	r3, r1
 1229 0458 C7E91C23 		strd	r2, [r7, #112]
 1230              	.L13:
 1231              		.loc 1 116 0 discriminator 1
 1232 045c D7E91C01 		ldrd	r0, [r7, #112]
 1233 0460 A7A3     		adr	r3, .L26
 1234 0462 D3E90023 		ldrd	r2, [r3]
 1235 0466 FFF7FEFF 		bl	__aeabi_dcmplt
 1236 046a 0346     		mov	r3, r0
 1237 046c 002B     		cmp	r3, #0
 1238 046e E7D1     		bne	.L14
 1239              	.LBE6:
 117:../Main.c     **** 		//print_Uart("M0 P00 \n\r");
 118:../Main.c     **** 				Get_PID(500,MODE_CURR_DATA,ENGINE_RPM,PRINT_NOTHING);
 1240              		.loc 1 118 0 is_stmt 1
 1241 0470 4FF4FA70 		mov	r0, #500
 1242 0474 4FF00101 		mov	r1, #1
 1243 0478 4FF00C02 		mov	r2, #12
 1244 047c 4FF00003 		mov	r3, #0
 1245 0480 FFF7FEFF 		bl	Get_PID
 1246              	.LBB7:
 119:../Main.c     **** 				for(double i=0;i<5000;i++);
 1247              		.loc 1 119 0
 1248 0484 4FF00002 		mov	r2, #0
 1249 0488 4FF00003 		mov	r3, #0
 1250 048c C7E91A23 		strd	r2, [r7, #104]
 1251 0490 0DE0     		b	.L15
 1252              	.L16:
 1253              		.loc 1 119 0 is_stmt 0 discriminator 2
 1254 0492 D7E91A01 		ldrd	r0, [r7, #104]
 1255 0496 4FF00002 		mov	r2, #0
 1256 049a 4FF00003 		mov	r3, #0
 1257 049e C3F6F073 		movt	r3, 16368
 1258 04a2 FFF7FEFF 		bl	__aeabi_dadd
 1259 04a6 0246     		mov	r2, r0
 1260 04a8 0B46     		mov	r3, r1
 1261 04aa C7E91A23 		strd	r2, [r7, #104]
 1262              	.L15:
 1263              		.loc 1 119 0 discriminator 1
 1264 04ae D7E91A01 		ldrd	r0, [r7, #104]
 1265 04b2 93A3     		adr	r3, .L26
 1266 04b4 D3E90023 		ldrd	r2, [r3]
 1267 04b8 FFF7FEFF 		bl	__aeabi_dcmplt
 1268 04bc 0346     		mov	r3, r0
 1269 04be 002B     		cmp	r3, #0
 1270 04c0 E7D1     		bne	.L16
 1271              	.LBE7:
 120:../Main.c     **** 		//print_Uart("M0 P20 \n\r");
 121:../Main.c     **** 				Get_PID(500,MODE_CURR_DATA,RUNTIME_START,PRINT_NOTHING);
 1272              		.loc 1 121 0 is_stmt 1
 1273 04c2 4FF4FA70 		mov	r0, #500
 1274 04c6 4FF00101 		mov	r1, #1
 1275 04ca 4FF01F02 		mov	r2, #31
 1276 04ce 4FF00003 		mov	r3, #0
 1277 04d2 FFF7FEFF 		bl	Get_PID
 1278              	.LBB8:
 122:../Main.c     **** 		  	  for(double i=0;i<5000;i++);
 1279              		.loc 1 122 0
 1280 04d6 4FF00002 		mov	r2, #0
 1281 04da 4FF00003 		mov	r3, #0
 1282 04de C7E91823 		strd	r2, [r7, #96]
 1283 04e2 0DE0     		b	.L17
 1284              	.L18:
 1285              		.loc 1 122 0 is_stmt 0 discriminator 2
 1286 04e4 D7E91801 		ldrd	r0, [r7, #96]
 1287 04e8 4FF00002 		mov	r2, #0
 1288 04ec 4FF00003 		mov	r3, #0
 1289 04f0 C3F6F073 		movt	r3, 16368
 1290 04f4 FFF7FEFF 		bl	__aeabi_dadd
 1291 04f8 0246     		mov	r2, r0
 1292 04fa 0B46     		mov	r3, r1
 1293 04fc C7E91823 		strd	r2, [r7, #96]
 1294              	.L17:
 1295              		.loc 1 122 0 discriminator 1
 1296 0500 D7E91801 		ldrd	r0, [r7, #96]
 1297 0504 7EA3     		adr	r3, .L26
 1298 0506 D3E90023 		ldrd	r2, [r3]
 1299 050a FFF7FEFF 		bl	__aeabi_dcmplt
 1300 050e 0346     		mov	r3, r0
 1301 0510 002B     		cmp	r3, #0
 1302 0512 E7D1     		bne	.L18
 1303              	.LBE8:
 123:../Main.c     **** 		//print_Uart("M9 P00 \n\r");
 124:../Main.c     **** 		  	  Get_PID(500,MODE_CURR_DATA,FUEL_LEVEL,PRINT_NOTHING);
 1304              		.loc 1 124 0 is_stmt 1
 1305 0514 4FF4FA70 		mov	r0, #500
 1306 0518 4FF00101 		mov	r1, #1
 1307 051c 4FF02F02 		mov	r2, #47
 1308 0520 4FF00003 		mov	r3, #0
 1309 0524 FFF7FEFF 		bl	Get_PID
 1310              	.LBB9:
 125:../Main.c     **** 				for(double i=0;i<5000;i++);
 1311              		.loc 1 125 0
 1312 0528 4FF00002 		mov	r2, #0
 1313 052c 4FF00003 		mov	r3, #0
 1314 0530 C7E91623 		strd	r2, [r7, #88]
 1315 0534 0DE0     		b	.L19
 1316              	.L20:
 1317              		.loc 1 125 0 is_stmt 0 discriminator 2
 1318 0536 D7E91601 		ldrd	r0, [r7, #88]
 1319 053a 4FF00002 		mov	r2, #0
 1320 053e 4FF00003 		mov	r3, #0
 1321 0542 C3F6F073 		movt	r3, 16368
 1322 0546 FFF7FEFF 		bl	__aeabi_dadd
 1323 054a 0246     		mov	r2, r0
 1324 054c 0B46     		mov	r3, r1
 1325 054e C7E91623 		strd	r2, [r7, #88]
 1326              	.L19:
 1327              		.loc 1 125 0 discriminator 1
 1328 0552 D7E91601 		ldrd	r0, [r7, #88]
 1329 0556 6AA3     		adr	r3, .L26
 1330 0558 D3E90023 		ldrd	r2, [r3]
 1331 055c FFF7FEFF 		bl	__aeabi_dcmplt
 1332 0560 0346     		mov	r3, r0
 1333 0562 002B     		cmp	r3, #0
 1334 0564 E7D1     		bne	.L20
 1335              	.LBE9:
 126:../Main.c     **** 		//print_Uart("M9 P00 \n\r");
 127:../Main.c     **** 				Get_PID(500,MODE_CURR_DATA,VEHICLE_SPEED,PRINT_VEHICAL_DATA);
 1336              		.loc 1 127 0 is_stmt 1
 1337 0566 4FF4FA70 		mov	r0, #500
 1338 056a 4FF00101 		mov	r1, #1
 1339 056e 4FF00D02 		mov	r2, #13
 1340 0572 4FF00203 		mov	r3, #2
 1341 0576 FFF7FEFF 		bl	Get_PID
 128:../Main.c     **** 				delay();
 1342              		.loc 1 128 0
 1343 057a FFF7FEFF 		bl	delay
 129:../Main.c     **** 
 130:../Main.c     **** 				Timer_WaitId = SYSTM001_CreateTimer(3000,SYSTM001_ONE_SHOT,TimerWaitISR,NULL);
 1344              		.loc 1 130 0
 1345 057e 40F6B830 		movw	r0, #3000
 1346 0582 4FF00001 		mov	r1, #0
 1347 0586 40F20002 		movw	r2, #:lower16:TimerWaitISR
 1348 058a C0F20002 		movt	r2, #:upper16:TimerWaitISR
 1349 058e 4FF00003 		mov	r3, #0
 1350 0592 FFF7FEFF 		bl	SYSTM001_CreateTimer
 1351 0596 0246     		mov	r2, r0
 1352 0598 40F20003 		movw	r3, #:lower16:Timer_WaitId
 1353 059c C0F20003 		movt	r3, #:upper16:Timer_WaitId
 1354 05a0 1A60     		str	r2, [r3, #0]
 131:../Main.c     **** 				Timer_Wait_Expired=FALSE;
 1355              		.loc 1 131 0
 1356 05a2 40F20003 		movw	r3, #:lower16:Timer_Wait_Expired
 1357 05a6 C0F20003 		movt	r3, #:upper16:Timer_Wait_Expired
 1358 05aa 4FF00002 		mov	r2, #0
 1359 05ae 1A70     		strb	r2, [r3, #0]
 132:../Main.c     **** 				SYSTM001_StartTimer (Timer_WaitId);
 1360              		.loc 1 132 0
 1361 05b0 40F20003 		movw	r3, #:lower16:Timer_WaitId
 1362 05b4 C0F20003 		movt	r3, #:upper16:Timer_WaitId
 1363 05b8 1B68     		ldr	r3, [r3, #0]
 1364 05ba 1846     		mov	r0, r3
 1365 05bc FFF7FEFF 		bl	SYSTM001_StartTimer
 133:../Main.c     **** 				while(!Timer_Wait_Expired);
 1366              		.loc 1 133 0
 1367 05c0 00BF     		nop
 1368              	.L21:
 1369              		.loc 1 133 0 is_stmt 0 discriminator 1
 1370 05c2 40F20003 		movw	r3, #:lower16:Timer_Wait_Expired
 1371 05c6 C0F20003 		movt	r3, #:upper16:Timer_Wait_Expired
 1372 05ca 1B78     		ldrb	r3, [r3, #0]	@ zero_extendqisi2
 1373 05cc 002B     		cmp	r3, #0
 1374 05ce F8D0     		beq	.L21
 1375              	.LBB10:
 134:../Main.c     **** 				for(double i=0;i<50000;i++);
 1376              		.loc 1 134 0 is_stmt 1
 1377 05d0 4FF00002 		mov	r2, #0
 1378 05d4 4FF00003 		mov	r3, #0
 1379 05d8 C7E91423 		strd	r2, [r7, #80]
 1380 05dc 0DE0     		b	.L22
 1381              	.L23:
 1382              		.loc 1 134 0 is_stmt 0 discriminator 2
 1383 05de D7E91401 		ldrd	r0, [r7, #80]
 1384 05e2 4FF00002 		mov	r2, #0
 1385 05e6 4FF00003 		mov	r3, #0
 1386 05ea C3F6F073 		movt	r3, 16368
 1387 05ee FFF7FEFF 		bl	__aeabi_dadd
 1388 05f2 0246     		mov	r2, r0
 1389 05f4 0B46     		mov	r3, r1
 1390 05f6 C7E91423 		strd	r2, [r7, #80]
 1391              	.L22:
 1392              		.loc 1 134 0 discriminator 1
 1393 05fa D7E91401 		ldrd	r0, [r7, #80]
 1394 05fe 42A3     		adr	r3, .L26+8
 1395 0600 D3E90023 		ldrd	r2, [r3]
 1396 0604 FFF7FEFF 		bl	__aeabi_dcmplt
 1397 0608 0346     		mov	r3, r0
 1398 060a 002B     		cmp	r3, #0
 1399 060c E7D1     		bne	.L23
 1400              	.LBE10:
 135:../Main.c     **** 				delay();
 1401              		.loc 1 135 0 is_stmt 1
 1402 060e FFF7FEFF 		bl	delay
 136:../Main.c     **** 				Send_Data(0x0200,Data_USD1);
 1403              		.loc 1 136 0
 1404 0612 07F13403 		add	r3, r7, #52
 1405 0616 4FF40070 		mov	r0, #512
 1406 061a 1946     		mov	r1, r3
 1407 061c FFF7FEFF 		bl	Send_Data
 137:../Main.c     **** 				delay();
 1408              		.loc 1 137 0
 1409 0620 FFF7FEFF 		bl	delay
 138:../Main.c     **** 				Send_Data(0x0200,Data_USD1);
 1410              		.loc 1 138 0
 1411 0624 07F13403 		add	r3, r7, #52
 1412 0628 4FF40070 		mov	r0, #512
 1413 062c 1946     		mov	r1, r3
 1414 062e FFF7FEFF 		bl	Send_Data
 139:../Main.c     **** 				delay();
 1415              		.loc 1 139 0
 1416 0632 FFF7FEFF 		bl	delay
 140:../Main.c     **** 				Send_Data(0x0200,Data_USD2);
 1417              		.loc 1 140 0
 1418 0636 07F12C03 		add	r3, r7, #44
 1419 063a 4FF40070 		mov	r0, #512
 1420 063e 1946     		mov	r1, r3
 1421 0640 FFF7FEFF 		bl	Send_Data
 141:../Main.c     **** 				delay();
 1422              		.loc 1 141 0
 1423 0644 FFF7FEFF 		bl	delay
 142:../Main.c     **** 				Send_Data(0x0200,Data_USD3);
 1424              		.loc 1 142 0
 1425 0648 07F12403 		add	r3, r7, #36
 1426 064c 4FF40070 		mov	r0, #512
 1427 0650 1946     		mov	r1, r3
 1428 0652 FFF7FEFF 		bl	Send_Data
 143:../Main.c     **** 				delay();
 1429              		.loc 1 143 0
 1430 0656 FFF7FEFF 		bl	delay
 144:../Main.c     **** 				Send_Data(0x0200,Data_USD3);
 1431              		.loc 1 144 0
 1432 065a 07F12403 		add	r3, r7, #36
 1433 065e 4FF40070 		mov	r0, #512
 1434 0662 1946     		mov	r1, r3
 1435 0664 FFF7FEFF 		bl	Send_Data
 145:../Main.c     **** 				delay();
 1436              		.loc 1 145 0
 1437 0668 FFF7FEFF 		bl	delay
 146:../Main.c     **** 				Send_Data(0x0200,Data_USD3);
 1438              		.loc 1 146 0
 1439 066c 07F12403 		add	r3, r7, #36
 1440 0670 4FF40070 		mov	r0, #512
 1441 0674 1946     		mov	r1, r3
 1442 0676 FFF7FEFF 		bl	Send_Data
 147:../Main.c     **** 				delay();
 1443              		.loc 1 147 0
 1444 067a FFF7FEFF 		bl	delay
 148:../Main.c     **** 				Send_Data(0x0714,Data_DSC);
 1445              		.loc 1 148 0
 1446 067e 07F11C03 		add	r3, r7, #28
 1447 0682 40F21470 		movw	r0, #1812
 1448 0686 1946     		mov	r1, r3
 1449 0688 FFF7FEFF 		bl	Send_Data
 149:../Main.c     **** 				delay();
 1450              		.loc 1 149 0
 1451 068c FFF7FEFF 		bl	delay
 150:../Main.c     **** 				Send_Data(0x0714,Data_ReadOdo);
 1452              		.loc 1 150 0
 1453 0690 07F11403 		add	r3, r7, #20
 1454 0694 40F21470 		movw	r0, #1812
 1455 0698 1946     		mov	r1, r3
 1456 069a FFF7FEFF 		bl	Send_Data
 151:../Main.c     **** 				delay();
 1457              		.loc 1 151 0
 1458 069e FFF7FEFF 		bl	delay
 1459              	.LBB11:
 152:../Main.c     **** 				for(double i=0;i<500000;i++);
 1460              		.loc 1 152 0
 1461 06a2 4FF00002 		mov	r2, #0
 1462 06a6 4FF00003 		mov	r3, #0
 1463 06aa C7E91223 		strd	r2, [r7, #72]
 1464 06ae 0DE0     		b	.L24
 1465              	.L25:
 1466              		.loc 1 152 0 is_stmt 0 discriminator 2
 1467 06b0 D7E91201 		ldrd	r0, [r7, #72]
 1468 06b4 4FF00002 		mov	r2, #0
 1469 06b8 4FF00003 		mov	r3, #0
 1470 06bc C3F6F073 		movt	r3, 16368
 1471 06c0 FFF7FEFF 		bl	__aeabi_dadd
 1472 06c4 0246     		mov	r2, r0
 1473 06c6 0B46     		mov	r3, r1
 1474 06c8 C7E91223 		strd	r2, [r7, #72]
 1475              	.L24:
 1476              		.loc 1 152 0 discriminator 1
 1477 06cc D7E91201 		ldrd	r0, [r7, #72]
 1478 06d0 0FA3     		adr	r3, .L26+16
 1479 06d2 D3E90023 		ldrd	r2, [r3]
 1480 06d6 FFF7FEFF 		bl	__aeabi_dcmplt
 1481 06da 0346     		mov	r3, r0
 1482 06dc 002B     		cmp	r3, #0
 1483 06de E7D1     		bne	.L25
 1484              	.LBE11:
 153:../Main.c     **** 				IO004_TogglePin(IO004_Handle0);
 1485              		.loc 1 153 0 is_stmt 1
 1486 06e0 40F20003 		movw	r3, #:lower16:IO004_Handle0
 1487 06e4 C0F20003 		movt	r3, #:upper16:IO004_Handle0
 1488 06e8 5A68     		ldr	r2, [r3, #4]
 1489 06ea 40F20003 		movw	r3, #:lower16:IO004_Handle0
 1490 06ee C0F20003 		movt	r3, #:upper16:IO004_Handle0
 1491 06f2 5B78     		ldrb	r3, [r3, #1]	@ zero_extendqisi2
 1492 06f4 4FF00111 		mov	r1, #65537
 1493 06f8 01FA03F3 		lsl	r3, r1, r3
 1494 06fc 5360     		str	r3, [r2, #4]
 154:../Main.c     **** 		  }
 155:../Main.c     **** #endif
 156:../Main.c     **** 	  }
 1495              		.loc 1 156 0
 1496 06fe 98E6     		b	.L12
 1497              	.L27:
 1498              		.align	3
 1499              	.L26:
 1500 0700 00000000 		.word	0
 1501 0704 0088B340 		.word	1085507584
 1502 0708 00000000 		.word	0
 1503 070c 006AE840 		.word	1088973312
 1504 0710 00000000 		.word	0
 1505 0714 80841E41 		.word	1092519040
 1506              		.cfi_endproc
 1507              	.LFE117:
 1509              		.section	.rodata
 1510              		.align	2
 1511              	.LC13:
 1512 0080 49443D78 		.ascii	"ID=x%.4X,D=%.2X %.2X %.2X %.2X %.2X %.2X %.2X %.2X "
 1512      252E3458 
 1512      2C443D25 
 1512      2E325820 
 1512      252E3258 
 1513 00b3 0D0A00   		.ascii	"\015\012\000"
 1514              		.section	.text.CAN0_1_IRQHandler,"ax",%progbits
 1515              		.align	2
 1516              		.global	CAN0_1_IRQHandler
 1517              		.thumb
 1518              		.thumb_func
 1520              	CAN0_1_IRQHandler:
 1521              	.LFB118:
 157:../Main.c     **** 	  	return 0;
 158:../Main.c     **** 	  }
 159:../Main.c     **** 
 160:../Main.c     **** /*    if(Status == DAVEApp_SUCCESS)
 161:../Main.c     ****  *    {
 162:../Main.c     ****  *      //wait till data frame is received.
 163:../Main.c     ****  *      while(!(CAN001_GetMOFlagStatus(&CAN001_Handle0,1,RECEIVE_PENDING)))
 164:../Main.c     ****  *      {}
 165:../Main.c     ****  *      // Read CAN message to handle CanRecMsgObj
 166:../Main.c     ****  *      CAN001_ReadMsgObj(&CAN001_Handle0,&CanRecMsgObj,1);
 167:../Main.c     ****  *    }
 168:../Main.c     ****  */
 169:../Main.c     **** // CAN RX INTERRUPT ISR
 170:../Main.c     **** void EventHandlerCAN001_0()
 171:../Main.c     **** 
 172:../Main.c     **** 	{
 1522              		.loc 1 172 0
 1523              		.cfi_startproc
 1524              		@ args = 0, pretend = 0, frame = 0
 1525              		@ frame_needed = 1, uses_anonymous_args = 0
 1526 0000 2DE9F043 		push	{r4, r5, r6, r7, r8, r9, lr}
 1527              	.LCFI3:
 1528              		.cfi_def_cfa_offset 28
 1529              		.cfi_offset 4, -28
 1530              		.cfi_offset 5, -24
 1531              		.cfi_offset 6, -20
 1532              		.cfi_offset 7, -16
 1533              		.cfi_offset 8, -12
 1534              		.cfi_offset 9, -8
 1535              		.cfi_offset 14, -4
 1536 0004 89B0     		sub	sp, sp, #36
 1537              	.LCFI4:
 1538              		.cfi_def_cfa_offset 64
 1539 0006 08AF     		add	r7, sp, #32
 1540              	.LCFI5:
 1541              		.cfi_def_cfa 7, 32
 173:../Main.c     **** 	//CAN_RX_Pkt_Count++;
 174:../Main.c     **** //		/* Check transmit pending status in LMO1 */
 175:../Main.c     **** //		if(CAN001_GetMOFlagStatus(&CAN001_Handle0,1,TRANSMIT_PENDING) == CAN_SET)
 176:../Main.c     **** //		{
 177:../Main.c     **** //			/* Clear the flag */
 178:../Main.c     **** //			CAN001_ClearMOFlagStatus(&CAN001_Handle0,1,TRANSMIT_PENDING);
 179:../Main.c     **** //		}
 180:../Main.c     **** 		/* Check receive pending status in LMO2 */
 181:../Main.c     **** 		if(CAN001_GetMOFlagStatus(&CAN001_Handle0,2,RECEIVE_PENDING) == CAN_SET)
 1542              		.loc 1 181 0
 1543 0008 40F20000 		movw	r0, #:lower16:CAN001_Handle0
 1544 000c C0F20000 		movt	r0, #:upper16:CAN001_Handle0
 1545 0010 4FF00201 		mov	r1, #2
 1546 0014 4FF00102 		mov	r2, #1
 1547 0018 FFF7FEFF 		bl	CAN001_GetMOFlagStatus
 1548 001c 0346     		mov	r3, r0
 1549 001e 012B     		cmp	r3, #1
 1550 0020 40F07F81 		bne	.L29
 182:../Main.c     **** 		{
 183:../Main.c     **** 			/* Clear the flag */
 184:../Main.c     **** 			CAN001_ClearMOFlagStatus(&CAN001_Handle0,2,RECEIVE_PENDING);
 1551              		.loc 1 184 0
 1552 0024 40F20000 		movw	r0, #:lower16:CAN001_Handle0
 1553 0028 C0F20000 		movt	r0, #:upper16:CAN001_Handle0
 1554 002c 4FF00201 		mov	r1, #2
 1555 0030 4FF00102 		mov	r2, #1
 1556 0034 FFF7FEFF 		bl	CAN001_ClearMOFlagStatus
 185:../Main.c     **** 			/* Read the received Message object and stores in variable CanRecMsgObj */
 186:../Main.c     **** 			CAN001_ReadMsgObj(&CAN001_Handle0,&CanRecMsgObj[CAN_RX_Pkt_Count],2);
 1557              		.loc 1 186 0
 1558 0038 40F20003 		movw	r3, #:lower16:CAN_RX_Pkt_Count
 1559 003c C0F20003 		movt	r3, #:upper16:CAN_RX_Pkt_Count
 1560 0040 1B78     		ldrb	r3, [r3, #0]	@ zero_extendqisi2
 1561 0042 1A46     		mov	r2, r3
 1562 0044 1346     		mov	r3, r2
 1563 0046 4FEA4303 		lsl	r3, r3, #1
 1564 004a 9B18     		adds	r3, r3, r2
 1565 004c 4FEAC303 		lsl	r3, r3, #3
 1566 0050 40F20002 		movw	r2, #:lower16:CanRecMsgObj
 1567 0054 C0F20002 		movt	r2, #:upper16:CanRecMsgObj
 1568 0058 9B18     		adds	r3, r3, r2
 1569 005a 40F20000 		movw	r0, #:lower16:CAN001_Handle0
 1570 005e C0F20000 		movt	r0, #:upper16:CAN001_Handle0
 1571 0062 1946     		mov	r1, r3
 1572 0064 4FF00202 		mov	r2, #2
 1573 0068 FFF7FEFF 		bl	CAN001_ReadMsgObj
 187:../Main.c     **** #ifndef Sniffer
 188:../Main.c     **** 			if((CanRecMsgObj[CAN_RX_Pkt_Count].Identifier==0x7e8) |(CanRecMsgObj[CAN_RX_Pkt_Count].Identifie
 1574              		.loc 1 188 0
 1575 006c 40F20003 		movw	r3, #:lower16:CAN_RX_Pkt_Count
 1576 0070 C0F20003 		movt	r3, #:upper16:CAN_RX_Pkt_Count
 1577 0074 1B78     		ldrb	r3, [r3, #0]	@ zero_extendqisi2
 1578 0076 1946     		mov	r1, r3
 1579 0078 40F20002 		movw	r2, #:lower16:CanRecMsgObj
 1580 007c C0F20002 		movt	r2, #:upper16:CanRecMsgObj
 1581 0080 0B46     		mov	r3, r1
 1582 0082 4FEA4303 		lsl	r3, r3, #1
 1583 0086 5B18     		adds	r3, r3, r1
 1584 0088 4FEAC303 		lsl	r3, r3, #3
 1585 008c D318     		adds	r3, r2, r3
 1586 008e 1B68     		ldr	r3, [r3, #0]
 1587 0090 B3F5FD6F 		cmp	r3, #2024
 1588 0094 14BF     		ite	ne
 1589 0096 0023     		movne	r3, #0
 1590 0098 0123     		moveq	r3, #1
 1591 009a D8B2     		uxtb	r0, r3
 1592 009c 40F20003 		movw	r3, #:lower16:CAN_RX_Pkt_Count
 1593 00a0 C0F20003 		movt	r3, #:upper16:CAN_RX_Pkt_Count
 1594 00a4 1B78     		ldrb	r3, [r3, #0]	@ zero_extendqisi2
 1595 00a6 1946     		mov	r1, r3
 1596 00a8 40F20002 		movw	r2, #:lower16:CanRecMsgObj
 1597 00ac C0F20002 		movt	r2, #:upper16:CanRecMsgObj
 1598 00b0 0B46     		mov	r3, r1
 1599 00b2 4FEA4303 		lsl	r3, r3, #1
 1600 00b6 5B18     		adds	r3, r3, r1
 1601 00b8 4FEAC303 		lsl	r3, r3, #3
 1602 00bc D318     		adds	r3, r2, r3
 1603 00be 1A68     		ldr	r2, [r3, #0]
 1604 00c0 40F2E973 		movw	r3, #2025
 1605 00c4 9A42     		cmp	r2, r3
 1606 00c6 14BF     		ite	ne
 1607 00c8 0023     		movne	r3, #0
 1608 00ca 0123     		moveq	r3, #1
 1609 00cc DBB2     		uxtb	r3, r3
 1610 00ce 0343     		orrs	r3, r3, r0
 1611 00d0 DBB2     		uxtb	r3, r3
 1612 00d2 002B     		cmp	r3, #0
 1613 00d4 41D0     		beq	.L30
 189:../Main.c     **** 			{
 190:../Main.c     **** 				if(CanRecMsgObj[CAN_RX_Pkt_Count].data[0]==0x10)
 1614              		.loc 1 190 0
 1615 00d6 40F20003 		movw	r3, #:lower16:CAN_RX_Pkt_Count
 1616 00da C0F20003 		movt	r3, #:upper16:CAN_RX_Pkt_Count
 1617 00de 1B78     		ldrb	r3, [r3, #0]	@ zero_extendqisi2
 1618 00e0 1946     		mov	r1, r3
 1619 00e2 40F20002 		movw	r2, #:lower16:CanRecMsgObj
 1620 00e6 C0F20002 		movt	r2, #:upper16:CanRecMsgObj
 1621 00ea 0B46     		mov	r3, r1
 1622 00ec 4FEA4303 		lsl	r3, r3, #1
 1623 00f0 5B18     		adds	r3, r3, r1
 1624 00f2 4FEAC303 		lsl	r3, r3, #3
 1625 00f6 D318     		adds	r3, r2, r3
 1626 00f8 03F10803 		add	r3, r3, #8
 1627 00fc DB78     		ldrb	r3, [r3, #3]	@ zero_extendqisi2
 1628 00fe 102B     		cmp	r3, #16
 1629 0100 07D1     		bne	.L31
 191:../Main.c     **** 				SYSTM001_StartTimer (TimerId);
 1630              		.loc 1 191 0
 1631 0102 40F20003 		movw	r3, #:lower16:TimerId
 1632 0106 C0F20003 		movt	r3, #:upper16:TimerId
 1633 010a 1B68     		ldr	r3, [r3, #0]
 1634 010c 1846     		mov	r0, r3
 1635 010e FFF7FEFF 		bl	SYSTM001_StartTimer
 1636              	.L31:
 192:../Main.c     **** 				/* Switch on LED Pin 1.1  to indicate that the requested message is received*/
 193:../Main.c     **** 				IO004_TogglePin(IO004_Handle2);
 1637              		.loc 1 193 0
 1638 0112 40F20003 		movw	r3, #:lower16:IO004_Handle2
 1639 0116 C0F20003 		movt	r3, #:upper16:IO004_Handle2
 1640 011a 5A68     		ldr	r2, [r3, #4]
 1641 011c 40F20003 		movw	r3, #:lower16:IO004_Handle2
 1642 0120 C0F20003 		movt	r3, #:upper16:IO004_Handle2
 1643 0124 5B78     		ldrb	r3, [r3, #1]	@ zero_extendqisi2
 1644 0126 4FF00111 		mov	r1, #65537
 1645 012a 01FA03F3 		lsl	r3, r1, r3
 1646 012e 5360     		str	r3, [r2, #4]
 194:../Main.c     **** 				CAN_Rx_Flag=CAN_PACKET_RECEIVED;
 1647              		.loc 1 194 0
 1648 0130 40F20003 		movw	r3, #:lower16:CAN_Rx_Flag
 1649 0134 C0F20003 		movt	r3, #:upper16:CAN_Rx_Flag
 1650 0138 4FF00102 		mov	r2, #1
 1651 013c 1A70     		strb	r2, [r3, #0]
 195:../Main.c     **** 				CAN_RX_Pkt_Count++;
 1652              		.loc 1 195 0
 1653 013e 40F20003 		movw	r3, #:lower16:CAN_RX_Pkt_Count
 1654 0142 C0F20003 		movt	r3, #:upper16:CAN_RX_Pkt_Count
 1655 0146 1B78     		ldrb	r3, [r3, #0]	@ zero_extendqisi2
 1656 0148 03F10103 		add	r3, r3, #1
 1657 014c DAB2     		uxtb	r2, r3
 1658 014e 40F20003 		movw	r3, #:lower16:CAN_RX_Pkt_Count
 1659 0152 C0F20003 		movt	r3, #:upper16:CAN_RX_Pkt_Count
 1660 0156 1A70     		strb	r2, [r3, #0]
 1661 0158 E3E0     		b	.L29
 1662              	.L30:
 196:../Main.c     **** //				if(	CAN_RX_Pkt_Count)
 197:../Main.c     **** 			}
 198:../Main.c     **** //			else if((CanRecMsgObj[CAN_RX_Pkt_Count].Identifier==0x17F00010) );
 199:../Main.c     **** 			else
 200:../Main.c     **** 			{
 201:../Main.c     **** 				sprintf(&CAN_RX_Buffer[0],"ID=x%.4X,D=%.2X %.2X %.2X %.2X %.2X %.2X %.2X %.2X \r\n",CanRecMsgOb
 1663              		.loc 1 201 0
 1664 015a 40F20003 		movw	r3, #:lower16:CAN_RX_Pkt_Count
 1665 015e C0F20003 		movt	r3, #:upper16:CAN_RX_Pkt_Count
 1666 0162 1B78     		ldrb	r3, [r3, #0]	@ zero_extendqisi2
 1667 0164 1946     		mov	r1, r3
 1668 0166 40F20002 		movw	r2, #:lower16:CanRecMsgObj
 1669 016a C0F20002 		movt	r2, #:upper16:CanRecMsgObj
 1670 016e 0B46     		mov	r3, r1
 1671 0170 4FEA4303 		lsl	r3, r3, #1
 1672 0174 5B18     		adds	r3, r3, r1
 1673 0176 4FEAC303 		lsl	r3, r3, #3
 1674 017a D318     		adds	r3, r2, r3
 1675 017c 1D68     		ldr	r5, [r3, #0]
 1676 017e 40F20003 		movw	r3, #:lower16:CAN_RX_Pkt_Count
 1677 0182 C0F20003 		movt	r3, #:upper16:CAN_RX_Pkt_Count
 1678 0186 1B78     		ldrb	r3, [r3, #0]	@ zero_extendqisi2
 1679 0188 1946     		mov	r1, r3
 1680 018a 40F20002 		movw	r2, #:lower16:CanRecMsgObj
 1681 018e C0F20002 		movt	r2, #:upper16:CanRecMsgObj
 1682 0192 0B46     		mov	r3, r1
 1683 0194 4FEA4303 		lsl	r3, r3, #1
 1684 0198 5B18     		adds	r3, r3, r1
 1685 019a 4FEAC303 		lsl	r3, r3, #3
 1686 019e D318     		adds	r3, r2, r3
 1687 01a0 03F10803 		add	r3, r3, #8
 1688 01a4 DB78     		ldrb	r3, [r3, #3]	@ zero_extendqisi2
 1689 01a6 1C46     		mov	r4, r3
 202:../Main.c     **** 						CanRecMsgObj[CAN_RX_Pkt_Count].data[1],CanRecMsgObj[CAN_RX_Pkt_Count].data[2],CanRecMsgObj[CA
 1690              		.loc 1 202 0
 1691 01a8 40F20003 		movw	r3, #:lower16:CAN_RX_Pkt_Count
 1692 01ac C0F20003 		movt	r3, #:upper16:CAN_RX_Pkt_Count
 1693 01b0 1B78     		ldrb	r3, [r3, #0]	@ zero_extendqisi2
 1694 01b2 1946     		mov	r1, r3
 1695 01b4 40F20002 		movw	r2, #:lower16:CanRecMsgObj
 1696 01b8 C0F20002 		movt	r2, #:upper16:CanRecMsgObj
 1697 01bc 0B46     		mov	r3, r1
 1698 01be 4FEA4303 		lsl	r3, r3, #1
 1699 01c2 5B18     		adds	r3, r3, r1
 1700 01c4 4FEAC303 		lsl	r3, r3, #3
 1701 01c8 D318     		adds	r3, r2, r3
 1702 01ca 03F10903 		add	r3, r3, #9
 1703 01ce DB78     		ldrb	r3, [r3, #3]	@ zero_extendqisi2
 201:../Main.c     **** 				sprintf(&CAN_RX_Buffer[0],"ID=x%.4X,D=%.2X %.2X %.2X %.2X %.2X %.2X %.2X %.2X \r\n",CanRecMsgOb
 1704              		.loc 1 201 0
 1705 01d0 9946     		mov	r9, r3
 1706              		.loc 1 202 0
 1707 01d2 40F20003 		movw	r3, #:lower16:CAN_RX_Pkt_Count
 1708 01d6 C0F20003 		movt	r3, #:upper16:CAN_RX_Pkt_Count
 1709 01da 1B78     		ldrb	r3, [r3, #0]	@ zero_extendqisi2
 1710 01dc 1946     		mov	r1, r3
 1711 01de 40F20002 		movw	r2, #:lower16:CanRecMsgObj
 1712 01e2 C0F20002 		movt	r2, #:upper16:CanRecMsgObj
 1713 01e6 0B46     		mov	r3, r1
 1714 01e8 4FEA4303 		lsl	r3, r3, #1
 1715 01ec 5B18     		adds	r3, r3, r1
 1716 01ee 4FEAC303 		lsl	r3, r3, #3
 1717 01f2 D318     		adds	r3, r2, r3
 1718 01f4 03F10A03 		add	r3, r3, #10
 1719 01f8 DB78     		ldrb	r3, [r3, #3]	@ zero_extendqisi2
 201:../Main.c     **** 				sprintf(&CAN_RX_Buffer[0],"ID=x%.4X,D=%.2X %.2X %.2X %.2X %.2X %.2X %.2X %.2X \r\n",CanRecMsgOb
 1720              		.loc 1 201 0
 1721 01fa 9846     		mov	r8, r3
 1722              		.loc 1 202 0
 1723 01fc 40F20003 		movw	r3, #:lower16:CAN_RX_Pkt_Count
 1724 0200 C0F20003 		movt	r3, #:upper16:CAN_RX_Pkt_Count
 1725 0204 1B78     		ldrb	r3, [r3, #0]	@ zero_extendqisi2
 1726 0206 1946     		mov	r1, r3
 1727 0208 40F20002 		movw	r2, #:lower16:CanRecMsgObj
 1728 020c C0F20002 		movt	r2, #:upper16:CanRecMsgObj
 1729 0210 0B46     		mov	r3, r1
 1730 0212 4FEA4303 		lsl	r3, r3, #1
 1731 0216 5B18     		adds	r3, r3, r1
 1732 0218 4FEAC303 		lsl	r3, r3, #3
 1733 021c D318     		adds	r3, r2, r3
 1734 021e 03F10B03 		add	r3, r3, #11
 1735 0222 DB78     		ldrb	r3, [r3, #3]	@ zero_extendqisi2
 201:../Main.c     **** 				sprintf(&CAN_RX_Buffer[0],"ID=x%.4X,D=%.2X %.2X %.2X %.2X %.2X %.2X %.2X %.2X \r\n",CanRecMsgOb
 1736              		.loc 1 201 0
 1737 0224 9C46     		mov	ip, r3
 1738              		.loc 1 202 0
 1739 0226 40F20003 		movw	r3, #:lower16:CAN_RX_Pkt_Count
 1740 022a C0F20003 		movt	r3, #:upper16:CAN_RX_Pkt_Count
 1741 022e 1B78     		ldrb	r3, [r3, #0]	@ zero_extendqisi2
 1742 0230 1946     		mov	r1, r3
 1743 0232 40F20002 		movw	r2, #:lower16:CanRecMsgObj
 1744 0236 C0F20002 		movt	r2, #:upper16:CanRecMsgObj
 1745 023a 0B46     		mov	r3, r1
 1746 023c 4FEA4303 		lsl	r3, r3, #1
 1747 0240 5B18     		adds	r3, r3, r1
 1748 0242 4FEAC303 		lsl	r3, r3, #3
 1749 0246 D318     		adds	r3, r2, r3
 1750 0248 03F10C03 		add	r3, r3, #12
 1751 024c DB78     		ldrb	r3, [r3, #3]	@ zero_extendqisi2
 201:../Main.c     **** 				sprintf(&CAN_RX_Buffer[0],"ID=x%.4X,D=%.2X %.2X %.2X %.2X %.2X %.2X %.2X %.2X \r\n",CanRecMsgOb
 1752              		.loc 1 201 0
 1753 024e 9E46     		mov	lr, r3
 203:../Main.c     **** 						CanRecMsgObj[CAN_RX_Pkt_Count].data[5],CanRecMsgObj[CAN_RX_Pkt_Count].data[6],CanRecMsgObj[CA
 1754              		.loc 1 203 0
 1755 0250 40F20003 		movw	r3, #:lower16:CAN_RX_Pkt_Count
 1756 0254 C0F20003 		movt	r3, #:upper16:CAN_RX_Pkt_Count
 1757 0258 1B78     		ldrb	r3, [r3, #0]	@ zero_extendqisi2
 1758 025a 1946     		mov	r1, r3
 1759 025c 40F20002 		movw	r2, #:lower16:CanRecMsgObj
 1760 0260 C0F20002 		movt	r2, #:upper16:CanRecMsgObj
 1761 0264 0B46     		mov	r3, r1
 1762 0266 4FEA4303 		lsl	r3, r3, #1
 1763 026a 5B18     		adds	r3, r3, r1
 1764 026c 4FEAC303 		lsl	r3, r3, #3
 1765 0270 D318     		adds	r3, r2, r3
 1766 0272 03F10D03 		add	r3, r3, #13
 1767 0276 DB78     		ldrb	r3, [r3, #3]	@ zero_extendqisi2
 201:../Main.c     **** 				sprintf(&CAN_RX_Buffer[0],"ID=x%.4X,D=%.2X %.2X %.2X %.2X %.2X %.2X %.2X %.2X \r\n",CanRecMsgOb
 1768              		.loc 1 201 0
 1769 0278 1E46     		mov	r6, r3
 1770              		.loc 1 203 0
 1771 027a 40F20003 		movw	r3, #:lower16:CAN_RX_Pkt_Count
 1772 027e C0F20003 		movt	r3, #:upper16:CAN_RX_Pkt_Count
 1773 0282 1B78     		ldrb	r3, [r3, #0]	@ zero_extendqisi2
 1774 0284 1946     		mov	r1, r3
 1775 0286 40F20002 		movw	r2, #:lower16:CanRecMsgObj
 1776 028a C0F20002 		movt	r2, #:upper16:CanRecMsgObj
 1777 028e 0B46     		mov	r3, r1
 1778 0290 4FEA4303 		lsl	r3, r3, #1
 1779 0294 5B18     		adds	r3, r3, r1
 1780 0296 4FEAC303 		lsl	r3, r3, #3
 1781 029a D318     		adds	r3, r2, r3
 1782 029c 03F10E03 		add	r3, r3, #14
 1783 02a0 DB78     		ldrb	r3, [r3, #3]	@ zero_extendqisi2
 201:../Main.c     **** 				sprintf(&CAN_RX_Buffer[0],"ID=x%.4X,D=%.2X %.2X %.2X %.2X %.2X %.2X %.2X %.2X \r\n",CanRecMsgOb
 1784              		.loc 1 201 0
 1785 02a2 1846     		mov	r0, r3
 1786              		.loc 1 203 0
 1787 02a4 40F20003 		movw	r3, #:lower16:CAN_RX_Pkt_Count
 1788 02a8 C0F20003 		movt	r3, #:upper16:CAN_RX_Pkt_Count
 1789 02ac 1B78     		ldrb	r3, [r3, #0]	@ zero_extendqisi2
 1790 02ae 1946     		mov	r1, r3
 1791 02b0 40F20002 		movw	r2, #:lower16:CanRecMsgObj
 1792 02b4 C0F20002 		movt	r2, #:upper16:CanRecMsgObj
 1793 02b8 0B46     		mov	r3, r1
 1794 02ba 4FEA4303 		lsl	r3, r3, #1
 1795 02be 5B18     		adds	r3, r3, r1
 1796 02c0 4FEAC303 		lsl	r3, r3, #3
 1797 02c4 D318     		adds	r3, r2, r3
 1798 02c6 03F10F03 		add	r3, r3, #15
 1799 02ca DB78     		ldrb	r3, [r3, #3]	@ zero_extendqisi2
 201:../Main.c     **** 				sprintf(&CAN_RX_Buffer[0],"ID=x%.4X,D=%.2X %.2X %.2X %.2X %.2X %.2X %.2X %.2X \r\n",CanRecMsgOb
 1800              		.loc 1 201 0
 1801 02cc CDF80090 		str	r9, [sp, #0]
 1802 02d0 CDF80480 		str	r8, [sp, #4]
 1803 02d4 CDF808C0 		str	ip, [sp, #8]
 1804 02d8 CDF80CE0 		str	lr, [sp, #12]
 1805 02dc 0496     		str	r6, [sp, #16]
 1806 02de 0590     		str	r0, [sp, #20]
 1807 02e0 0693     		str	r3, [sp, #24]
 1808 02e2 40F20000 		movw	r0, #:lower16:CAN_RX_Buffer
 1809 02e6 C0F20000 		movt	r0, #:upper16:CAN_RX_Buffer
 1810 02ea 40F20001 		movw	r1, #:lower16:.LC13
 1811 02ee C0F20001 		movt	r1, #:upper16:.LC13
 1812 02f2 2A46     		mov	r2, r5
 1813 02f4 2346     		mov	r3, r4
 1814 02f6 FFF7FEFF 		bl	sprintf
 204:../Main.c     **** 				UART001_WriteDataBytes(&UART001_Handle0, (uint8_t*)&CAN_RX_Buffer, (uint32_t)strlen(CAN_RX_Buff
 1815              		.loc 1 204 0
 1816 02fa 40F20000 		movw	r0, #:lower16:CAN_RX_Buffer
 1817 02fe C0F20000 		movt	r0, #:upper16:CAN_RX_Buffer
 1818 0302 FFF7FEFF 		bl	strlen
 1819 0306 0346     		mov	r3, r0
 1820 0308 03F10103 		add	r3, r3, #1
 1821 030c 40F20000 		movw	r0, #:lower16:UART001_Handle0
 1822 0310 C0F20000 		movt	r0, #:upper16:UART001_Handle0
 1823 0314 40F20001 		movw	r1, #:lower16:CAN_RX_Buffer
 1824 0318 C0F20001 		movt	r1, #:upper16:CAN_RX_Buffer
 1825 031c 1A46     		mov	r2, r3
 1826 031e FFF7FEFF 		bl	UART001_WriteDataBytes
 1827              	.L29:
 205:../Main.c     **** 			}
 206:../Main.c     **** #endif
 207:../Main.c     **** #ifdef Sniffer
 208:../Main.c     **** //			if(CanRecMsgObj[CAN_RX_Pkt_Count].Identifier!=0x17F00010)
 209:../Main.c     **** 			if((CanRecMsgObj[CAN_RX_Pkt_Count].data[2]!=0x0C) && ((CanRecMsgObj[CAN_RX_Pkt_Count].data[1]!=0
 210:../Main.c     **** 			{
 211:../Main.c     **** 			sprintf(&Sniffer_Buffer[0],"ID=x%.4X,D=%.2X %.2X %.2X %.2X %.2X %.2X %.2X %.2X \r\n",CanRecMsgOb
 212:../Main.c     **** 					CanRecMsgObj[CAN_RX_Pkt_Count].data[1],CanRecMsgObj[CAN_RX_Pkt_Count].data[2],CanRecMsgObj[CAN
 213:../Main.c     **** 					CanRecMsgObj[CAN_RX_Pkt_Count].data[7]);
 214:../Main.c     **** 			UART001_WriteDataBytes(&UART001_Handle0, (uint8_t*)&Sniffer_Buffer, (uint32_t)strlen(Sniffer_Buf
 215:../Main.c     **** 			}
 216:../Main.c     **** #endif
 217:../Main.c     **** //			ECU_Test[ECU_Index].Uconnection=TRUE;
 218:../Main.c     **** 			//temp++;
 219:../Main.c     **** 		}
 220:../Main.c     **** 		/* Check for Node error */
 221:../Main.c     **** 		if(CAN001_GetNodeFlagStatus(&CAN001_Handle0,CAN001_ALERT_STATUS) == CAN_SET)
 1828              		.loc 1 221 0
 1829 0322 40F20000 		movw	r0, #:lower16:CAN001_Handle0
 1830 0326 C0F20000 		movt	r0, #:upper16:CAN001_Handle0
 1831 032a 4FF02001 		mov	r1, #32
 1832 032e FFF7FEFF 		bl	CAN001_GetNodeFlagStatus
 1833 0332 0346     		mov	r3, r0
 1834 0334 012B     		cmp	r3, #1
 1835 0336 0ED1     		bne	.L28
 222:../Main.c     **** 		{
 223:../Main.c     **** 			/* Clear the flag */
 224:../Main.c     **** 			CAN001_ClearNodeFlagStatus(&CAN001_Handle0,CAN001_ALERT_STATUS);
 1836              		.loc 1 224 0
 1837 0338 40F20000 		movw	r0, #:lower16:CAN001_Handle0
 1838 033c C0F20000 		movt	r0, #:upper16:CAN001_Handle0
 1839 0340 4FF02001 		mov	r1, #32
 1840 0344 FFF7FEFF 		bl	CAN001_ClearNodeFlagStatus
 225:../Main.c     **** 			CAN_Rx_Flag=CAN_PACKET_RX_ERROR;
 1841              		.loc 1 225 0
 1842 0348 40F20003 		movw	r3, #:lower16:CAN_Rx_Flag
 1843 034c C0F20003 		movt	r3, #:upper16:CAN_Rx_Flag
 1844 0350 4FF00202 		mov	r2, #2
 1845 0354 1A70     		strb	r2, [r3, #0]
 1846              	.L28:
 226:../Main.c     **** 		}
 227:../Main.c     **** 	}
 1847              		.loc 1 227 0
 1848 0356 07F10407 		add	r7, r7, #4
 1849 035a BD46     		mov	sp, r7
 1850 035c BDE8F083 		pop	{r4, r5, r6, r7, r8, r9, pc}
 1851              		.cfi_endproc
 1852              	.LFE118:
 1854              		.section	.text.delay,"ax",%progbits
 1855              		.align	2
 1856              		.global	delay
 1857              		.thumb
 1858              		.thumb_func
 1860              	delay:
 1861              	.LFB119:
 228:../Main.c     **** void delay(void)
 229:../Main.c     **** {
 1862              		.loc 1 229 0
 1863              		.cfi_startproc
 1864              		@ args = 0, pretend = 0, frame = 8
 1865              		@ frame_needed = 1, uses_anonymous_args = 0
 1866 0000 80B5     		push	{r7, lr}
 1867              	.LCFI6:
 1868              		.cfi_def_cfa_offset 8
 1869              		.cfi_offset 7, -8
 1870              		.cfi_offset 14, -4
 1871 0002 82B0     		sub	sp, sp, #8
 1872              	.LCFI7:
 1873              		.cfi_def_cfa_offset 16
 1874 0004 00AF     		add	r7, sp, #0
 1875              	.LCFI8:
 1876              		.cfi_def_cfa_register 7
 1877              	.LBB12:
 230:../Main.c     **** for(double i=0;i<5000;i++);
 1878              		.loc 1 230 0
 1879 0006 4FF00002 		mov	r2, #0
 1880 000a 4FF00003 		mov	r3, #0
 1881 000e C7E90023 		strd	r2, [r7]
 1882 0012 0DE0     		b	.L34
 1883              	.L35:
 1884              		.loc 1 230 0 is_stmt 0 discriminator 2
 1885 0014 D7E90001 		ldrd	r0, [r7]
 1886 0018 4FF00002 		mov	r2, #0
 1887 001c 4FF00003 		mov	r3, #0
 1888 0020 C3F6F073 		movt	r3, 16368
 1889 0024 FFF7FEFF 		bl	__aeabi_dadd
 1890 0028 0246     		mov	r2, r0
 1891 002a 0B46     		mov	r3, r1
 1892 002c C7E90023 		strd	r2, [r7]
 1893              	.L34:
 1894              		.loc 1 230 0 discriminator 1
 1895 0030 D7E90001 		ldrd	r0, [r7]
 1896 0034 06A3     		adr	r3, .L36
 1897 0036 D3E90023 		ldrd	r2, [r3]
 1898 003a FFF7FEFF 		bl	__aeabi_dcmplt
 1899 003e 0346     		mov	r3, r0
 1900 0040 002B     		cmp	r3, #0
 1901 0042 E7D1     		bne	.L35
 1902              	.LBE12:
 231:../Main.c     **** }
 1903              		.loc 1 231 0 is_stmt 1
 1904 0044 07F10807 		add	r7, r7, #8
 1905 0048 BD46     		mov	sp, r7
 1906 004a 80BD     		pop	{r7, pc}
 1907              	.L37:
 1908 004c AFF30080 		.align	3
 1909              	.L36:
 1910 0050 00000000 		.word	0
 1911 0054 0088B340 		.word	1085507584
 1912              		.cfi_endproc
 1913              	.LFE119:
 1915              		.section	.text.StoreData,"ax",%progbits
 1916              		.align	2
 1917              		.global	StoreData
 1918              		.thumb
 1919              		.thumb_func
 1921              	StoreData:
 1922              	.LFB120:
 232:../Main.c     **** 
 233:../Main.c     **** uint8_t StoreData(uint8_t Pid)
 234:../Main.c     **** {
 1923              		.loc 1 234 0
 1924              		.cfi_startproc
 1925              		@ args = 0, pretend = 0, frame = 24
 1926              		@ frame_needed = 1, uses_anonymous_args = 0
 1927 0000 80B5     		push	{r7, lr}
 1928              	.LCFI9:
 1929              		.cfi_def_cfa_offset 8
 1930              		.cfi_offset 7, -8
 1931              		.cfi_offset 14, -4
 1932 0002 86B0     		sub	sp, sp, #24
 1933              	.LCFI10:
 1934              		.cfi_def_cfa_offset 32
 1935 0004 00AF     		add	r7, sp, #0
 1936              	.LCFI11:
 1937              		.cfi_def_cfa_register 7
 1938 0006 0346     		mov	r3, r0
 1939 0008 FB71     		strb	r3, [r7, #7]
 235:../Main.c     **** 
 236:../Main.c     **** 	uint8_t Data_Rx[8];
 237:../Main.c     **** 	uint8_t Error=1;
 1940              		.loc 1 237 0
 1941 000a 4FF00103 		mov	r3, #1
 1942 000e FB75     		strb	r3, [r7, #23]
 238:../Main.c     **** 	uint8_t ECU_Index=0;
 1943              		.loc 1 238 0
 1944 0010 4FF00003 		mov	r3, #0
 1945 0014 BB75     		strb	r3, [r7, #22]
 239:../Main.c     **** 	memcpy(Data_Rx,&CanRecMsgObj[CAN_RX_Pkt_Count].data[0],8);
 1946              		.loc 1 239 0
 1947 0016 40F20003 		movw	r3, #:lower16:CAN_RX_Pkt_Count
 1948 001a C0F20003 		movt	r3, #:upper16:CAN_RX_Pkt_Count
 1949 001e 1B78     		ldrb	r3, [r3, #0]	@ zero_extendqisi2
 1950 0020 1A46     		mov	r2, r3
 1951 0022 1346     		mov	r3, r2
 1952 0024 4FEA4303 		lsl	r3, r3, #1
 1953 0028 9B18     		adds	r3, r3, r2
 1954 002a 4FEAC303 		lsl	r3, r3, #3
 1955 002e 03F10802 		add	r2, r3, #8
 1956 0032 40F20003 		movw	r3, #:lower16:CanRecMsgObj
 1957 0036 C0F20003 		movt	r3, #:upper16:CanRecMsgObj
 1958 003a D318     		adds	r3, r2, r3
 1959 003c 03F10302 		add	r2, r3, #3
 1960 0040 07F10C03 		add	r3, r7, #12
 1961 0044 1068     		ldr	r0, [r2, #0]	@ unaligned
 1962 0046 5168     		ldr	r1, [r2, #4]	@ unaligned
 1963 0048 03C3     		stmia	r3!, {r0, r1}
 240:../Main.c     **** 	if(CAN_Rx_Flag==CAN_PACKET_RX_ERROR)
 1964              		.loc 1 240 0
 1965 004a 40F20003 		movw	r3, #:lower16:CAN_Rx_Flag
 1966 004e C0F20003 		movt	r3, #:upper16:CAN_Rx_Flag
 1967 0052 1B78     		ldrb	r3, [r3, #0]	@ zero_extendqisi2
 1968 0054 022B     		cmp	r3, #2
 1969 0056 04D1     		bne	.L39
 241:../Main.c     **** 		return Error=CAN_PACKET_RX_ERROR;
 1970              		.loc 1 241 0
 1971 0058 4FF00203 		mov	r3, #2
 1972 005c FB75     		strb	r3, [r7, #23]
 1973 005e FB7D     		ldrb	r3, [r7, #23]	@ zero_extendqisi2
 1974 0060 F2E2     		b	.L72
 1975              	.L39:
 242:../Main.c     **** 		//UART001_WriteDataBytes(&UART001_Handle0, (uint8_t*)&can_uart_error, (uint32_t)sizeof(can_uart_e
 243:../Main.c     **** 	else
 244:../Main.c     **** 		{
 245:../Main.c     **** 			ECU_Val=CanRecMsgObj[CAN_RX_Pkt_Count].Identifier;
 1976              		.loc 1 245 0
 1977 0062 40F20003 		movw	r3, #:lower16:CAN_RX_Pkt_Count
 1978 0066 C0F20003 		movt	r3, #:upper16:CAN_RX_Pkt_Count
 1979 006a 1B78     		ldrb	r3, [r3, #0]	@ zero_extendqisi2
 1980 006c 1946     		mov	r1, r3
 1981 006e 40F20002 		movw	r2, #:lower16:CanRecMsgObj
 1982 0072 C0F20002 		movt	r2, #:upper16:CanRecMsgObj
 1983 0076 0B46     		mov	r3, r1
 1984 0078 4FEA4303 		lsl	r3, r3, #1
 1985 007c 5B18     		adds	r3, r3, r1
 1986 007e 4FEAC303 		lsl	r3, r3, #3
 1987 0082 D318     		adds	r3, r2, r3
 1988 0084 1B68     		ldr	r3, [r3, #0]
 1989 0086 9AB2     		uxth	r2, r3
 1990 0088 40F20003 		movw	r3, #:lower16:ECU_Val
 1991 008c C0F20003 		movt	r3, #:upper16:ECU_Val
 1992 0090 1A80     		strh	r2, [r3, #0]	@ movhi
 246:../Main.c     **** 			ECU_Index=ECU_Val-0x7E8;
 1993              		.loc 1 246 0
 1994 0092 40F20003 		movw	r3, #:lower16:ECU_Val
 1995 0096 C0F20003 		movt	r3, #:upper16:ECU_Val
 1996 009a 1B88     		ldrh	r3, [r3, #0]
 1997 009c DBB2     		uxtb	r3, r3
 1998 009e 03F11803 		add	r3, r3, #24
 1999 00a2 BB75     		strb	r3, [r7, #22]
 247:../Main.c     **** 			ECU_Test[ECU_Index].ECU_Add=ECU_Val;
 2000              		.loc 1 247 0
 2001 00a4 B97D     		ldrb	r1, [r7, #22]	@ zero_extendqisi2
 2002 00a6 40F20003 		movw	r3, #:lower16:ECU_Val
 2003 00aa C0F20003 		movt	r3, #:upper16:ECU_Val
 2004 00ae 1A88     		ldrh	r2, [r3, #0]
 2005 00b0 40F20003 		movw	r3, #:lower16:ECU_Test
 2006 00b4 C0F20003 		movt	r3, #:upper16:ECU_Test
 2007 00b8 4FEAC111 		lsl	r1, r1, #7
 2008 00bc 5B18     		adds	r3, r3, r1
 2009 00be 5A80     		strh	r2, [r3, #2]	@ movhi
 248:../Main.c     **** 			Data_Len=Data_Rx[0];
 2010              		.loc 1 248 0
 2011 00c0 3A7B     		ldrb	r2, [r7, #12]	@ zero_extendqisi2
 2012 00c2 40F20003 		movw	r3, #:lower16:Data_Len
 2013 00c6 C0F20003 		movt	r3, #:upper16:Data_Len
 2014 00ca 1A70     		strb	r2, [r3, #0]
 249:../Main.c     **** 			MODE_Val=(Data_Rx[1]-0x40);
 2015              		.loc 1 249 0
 2016 00cc 7B7B     		ldrb	r3, [r7, #13]	@ zero_extendqisi2
 2017 00ce A3F14003 		sub	r3, r3, #64
 2018 00d2 DAB2     		uxtb	r2, r3
 2019 00d4 40F20003 		movw	r3, #:lower16:MODE_Val
 2020 00d8 C0F20003 		movt	r3, #:upper16:MODE_Val
 2021 00dc 1A70     		strb	r2, [r3, #0]
 250:../Main.c     **** 			PID_Val=Data_Rx[2];
 2022              		.loc 1 250 0
 2023 00de BA7B     		ldrb	r2, [r7, #14]	@ zero_extendqisi2
 2024 00e0 40F20003 		movw	r3, #:lower16:PID_Val
 2025 00e4 C0F20003 		movt	r3, #:upper16:PID_Val
 2026 00e8 1A70     		strb	r2, [r3, #0]
 251:../Main.c     **** 
 252:../Main.c     **** 			if(MODE_Val==MODE_CURR_DATA)
 2027              		.loc 1 252 0
 2028 00ea 40F20003 		movw	r3, #:lower16:MODE_Val
 2029 00ee C0F20003 		movt	r3, #:upper16:MODE_Val
 2030 00f2 1B78     		ldrb	r3, [r3, #0]	@ zero_extendqisi2
 2031 00f4 012B     		cmp	r3, #1
 2032 00f6 40F07A81 		bne	.L41
 253:../Main.c     **** 			{
 254:../Main.c     **** 				switch (PID_Val)//PID query Message is same in response
 2033              		.loc 1 254 0
 2034 00fa 40F20003 		movw	r3, #:lower16:PID_Val
 2035 00fe C0F20003 		movt	r3, #:upper16:PID_Val
 2036 0102 1B78     		ldrb	r3, [r3, #0]	@ zero_extendqisi2
 2037 0104 402B     		cmp	r3, #64
 2038 0106 00F26281 		bhi	.L42
 2039 010a 01A2     		adr	r2, .L52
 2040 010c 52F823F0 		ldr	pc, [r2, r3, lsl #2]
 2041              		.align	2
 2042              	.L52:
 2043 0110 15020000 		.word	.L43+1
 2044 0114 CF030000 		.word	.L42+1
 2045 0118 CF030000 		.word	.L42+1
 2046 011c CF030000 		.word	.L42+1
 2047 0120 CF030000 		.word	.L42+1
 2048 0124 B1020000 		.word	.L44+1
 2049 0128 CF030000 		.word	.L42+1
 2050 012c CF030000 		.word	.L42+1
 2051 0130 CF030000 		.word	.L42+1
 2052 0134 CF030000 		.word	.L42+1
 2053 0138 CF030000 		.word	.L42+1
 2054 013c CF030000 		.word	.L42+1
 2055 0140 13030000 		.word	.L45+1
 2056 0144 4B030000 		.word	.L46+1
 2057 0148 CF030000 		.word	.L42+1
 2058 014c CF030000 		.word	.L42+1
 2059 0150 CF030000 		.word	.L42+1
 2060 0154 CF030000 		.word	.L42+1
 2061 0158 CF030000 		.word	.L42+1
 2062 015c CF030000 		.word	.L42+1
 2063 0160 CF030000 		.word	.L42+1
 2064 0164 CF030000 		.word	.L42+1
 2065 0168 CF030000 		.word	.L42+1
 2066 016c CF030000 		.word	.L42+1
 2067 0170 CF030000 		.word	.L42+1
 2068 0174 CF030000 		.word	.L42+1
 2069 0178 CF030000 		.word	.L42+1
 2070 017c CF030000 		.word	.L42+1
 2071 0180 D1020000 		.word	.L47+1
 2072 0184 CF030000 		.word	.L42+1
 2073 0188 CF030000 		.word	.L42+1
 2074 018c 99030000 		.word	.L48+1
 2075 0190 49020000 		.word	.L49+1
 2076 0194 CF030000 		.word	.L42+1
 2077 0198 CF030000 		.word	.L42+1
 2078 019c CF030000 		.word	.L42+1
 2079 01a0 CF030000 		.word	.L42+1
 2080 01a4 CF030000 		.word	.L42+1
 2081 01a8 CF030000 		.word	.L42+1
 2082 01ac CF030000 		.word	.L42+1
 2083 01b0 CF030000 		.word	.L42+1
 2084 01b4 CF030000 		.word	.L42+1
 2085 01b8 CF030000 		.word	.L42+1
 2086 01bc CF030000 		.word	.L42+1
 2087 01c0 CF030000 		.word	.L42+1
 2088 01c4 CF030000 		.word	.L42+1
 2089 01c8 CF030000 		.word	.L42+1
 2090 01cc 65030000 		.word	.L50+1
 2091 01d0 CF030000 		.word	.L42+1
 2092 01d4 CF030000 		.word	.L42+1
 2093 01d8 CF030000 		.word	.L42+1
 2094 01dc CF030000 		.word	.L42+1
 2095 01e0 CF030000 		.word	.L42+1
 2096 01e4 CF030000 		.word	.L42+1
 2097 01e8 CF030000 		.word	.L42+1
 2098 01ec CF030000 		.word	.L42+1
 2099 01f0 CF030000 		.word	.L42+1
 2100 01f4 CF030000 		.word	.L42+1
 2101 01f8 CF030000 		.word	.L42+1
 2102 01fc CF030000 		.word	.L42+1
 2103 0200 CF030000 		.word	.L42+1
 2104 0204 CF030000 		.word	.L42+1
 2105 0208 CF030000 		.word	.L42+1
 2106 020c CF030000 		.word	.L42+1
 2107 0210 7D020000 		.word	.L51+1
 2108              	.L43:
 255:../Main.c     **** 				{
 256:../Main.c     **** 				case PID_SUPPORT00:
 257:../Main.c     **** 					ECU_Test[ECU_Index].pid01to20_support=(unsigned long)((Data_Rx[3]<<24)|(Data_Rx[4]<<16)|(Data_
 2109              		.loc 1 257 0
 2110 0214 B97D     		ldrb	r1, [r7, #22]	@ zero_extendqisi2
 2111 0216 FB7B     		ldrb	r3, [r7, #15]	@ zero_extendqisi2
 2112 0218 4FEA0362 		lsl	r2, r3, #24
 2113 021c 3B7C     		ldrb	r3, [r7, #16]	@ zero_extendqisi2
 2114 021e 4FEA0343 		lsl	r3, r3, #16
 2115 0222 1A43     		orrs	r2, r2, r3
 2116 0224 7B7C     		ldrb	r3, [r7, #17]	@ zero_extendqisi2
 2117 0226 4FEA0323 		lsl	r3, r3, #8
 2118 022a 1A43     		orrs	r2, r2, r3
 2119 022c BB7C     		ldrb	r3, [r7, #18]	@ zero_extendqisi2
 2120 022e 1343     		orrs	r3, r3, r2
 2121 0230 1A46     		mov	r2, r3
 2122 0232 40F20003 		movw	r3, #:lower16:ECU_Test
 2123 0236 C0F20003 		movt	r3, #:upper16:ECU_Test
 2124 023a 4FEAC111 		lsl	r1, r1, #7
 2125 023e 5B18     		adds	r3, r3, r1
 2126 0240 03F10403 		add	r3, r3, #4
 2127 0244 1A60     		str	r2, [r3, #0]
 258:../Main.c     **** 					break;
 2128              		.loc 1 258 0
 2129 0246 FEE1     		b	.L55
 2130              	.L49:
 259:../Main.c     **** 				case PID_SUPPORT20:
 260:../Main.c     **** 					ECU_Test[ECU_Index].pid21to40_support=(unsigned long)((Data_Rx[3]<<24)|(Data_Rx[4]<<16)|(Data_
 2131              		.loc 1 260 0
 2132 0248 B97D     		ldrb	r1, [r7, #22]	@ zero_extendqisi2
 2133 024a FB7B     		ldrb	r3, [r7, #15]	@ zero_extendqisi2
 2134 024c 4FEA0362 		lsl	r2, r3, #24
 2135 0250 3B7C     		ldrb	r3, [r7, #16]	@ zero_extendqisi2
 2136 0252 4FEA0343 		lsl	r3, r3, #16
 2137 0256 1A43     		orrs	r2, r2, r3
 2138 0258 7B7C     		ldrb	r3, [r7, #17]	@ zero_extendqisi2
 2139 025a 4FEA0323 		lsl	r3, r3, #8
 2140 025e 1A43     		orrs	r2, r2, r3
 2141 0260 BB7C     		ldrb	r3, [r7, #18]	@ zero_extendqisi2
 2142 0262 1343     		orrs	r3, r3, r2
 2143 0264 1A46     		mov	r2, r3
 2144 0266 40F20003 		movw	r3, #:lower16:ECU_Test
 2145 026a C0F20003 		movt	r3, #:upper16:ECU_Test
 2146 026e 4FEAC111 		lsl	r1, r1, #7
 2147 0272 5B18     		adds	r3, r3, r1
 2148 0274 03F10803 		add	r3, r3, #8
 2149 0278 1A60     		str	r2, [r3, #0]
 261:../Main.c     **** 					break;
 2150              		.loc 1 261 0
 2151 027a E4E1     		b	.L55
 2152              	.L51:
 262:../Main.c     **** 				case PID_SUPPORT40:
 263:../Main.c     **** 					ECU_Test[ECU_Index].pid41to60_support=(unsigned long)((Data_Rx[3]<<24)|(Data_Rx[4]<<16)|(Data_
 2153              		.loc 1 263 0
 2154 027c B97D     		ldrb	r1, [r7, #22]	@ zero_extendqisi2
 2155 027e FB7B     		ldrb	r3, [r7, #15]	@ zero_extendqisi2
 2156 0280 4FEA0362 		lsl	r2, r3, #24
 2157 0284 3B7C     		ldrb	r3, [r7, #16]	@ zero_extendqisi2
 2158 0286 4FEA0343 		lsl	r3, r3, #16
 2159 028a 1A43     		orrs	r2, r2, r3
 2160 028c 7B7C     		ldrb	r3, [r7, #17]	@ zero_extendqisi2
 2161 028e 4FEA0323 		lsl	r3, r3, #8
 2162 0292 1A43     		orrs	r2, r2, r3
 2163 0294 BB7C     		ldrb	r3, [r7, #18]	@ zero_extendqisi2
 2164 0296 1343     		orrs	r3, r3, r2
 2165 0298 1A46     		mov	r2, r3
 2166 029a 40F20003 		movw	r3, #:lower16:ECU_Test
 2167 029e C0F20003 		movt	r3, #:upper16:ECU_Test
 2168 02a2 4FEAC111 		lsl	r1, r1, #7
 2169 02a6 5B18     		adds	r3, r3, r1
 2170 02a8 03F10C03 		add	r3, r3, #12
 2171 02ac 1A60     		str	r2, [r3, #0]
 264:../Main.c     **** 					break;
 2172              		.loc 1 264 0
 2173 02ae CAE1     		b	.L55
 2174              	.L44:
 265:../Main.c     **** 				case COOLANT_TEMP:
 266:../Main.c     **** 					ECU_Test[ECU_Index].Coolant_Temp=(Data_Rx[3]-40);
 2175              		.loc 1 266 0
 2176 02b0 B97D     		ldrb	r1, [r7, #22]	@ zero_extendqisi2
 2177 02b2 FB7B     		ldrb	r3, [r7, #15]	@ zero_extendqisi2
 2178 02b4 A3F12803 		sub	r3, r3, #40
 2179 02b8 DAB2     		uxtb	r2, r3
 2180 02ba 40F20003 		movw	r3, #:lower16:ECU_Test
 2181 02be C0F20003 		movt	r3, #:upper16:ECU_Test
 2182 02c2 4FEAC111 		lsl	r1, r1, #7
 2183 02c6 5B18     		adds	r3, r3, r1
 2184 02c8 03F14803 		add	r3, r3, #72
 2185 02cc 5A71     		strb	r2, [r3, #5]
 267:../Main.c     **** 					break;
 2186              		.loc 1 267 0
 2187 02ce BAE1     		b	.L55
 2188              	.L47:
 268:../Main.c     **** 				case OBD_STD:
 269:../Main.c     **** 					memcpy(ECU_Test[ECU_Index].ODB_Std,&obd_std_strings[Data_Rx[3]],10);
 2189              		.loc 1 269 0
 2190 02d0 BB7D     		ldrb	r3, [r7, #22]	@ zero_extendqisi2
 2191 02d2 4FEAC313 		lsl	r3, r3, #7
 2192 02d6 03F11002 		add	r2, r3, #16
 2193 02da 40F20003 		movw	r3, #:lower16:ECU_Test
 2194 02de C0F20003 		movt	r3, #:upper16:ECU_Test
 2195 02e2 D318     		adds	r3, r2, r3
 2196 02e4 03F10401 		add	r1, r3, #4
 2197 02e8 FB7B     		ldrb	r3, [r7, #15]	@ zero_extendqisi2
 2198 02ea 1A46     		mov	r2, r3
 2199 02ec 1346     		mov	r3, r2
 2200 02ee 4FEA8303 		lsl	r3, r3, #2
 2201 02f2 9B18     		adds	r3, r3, r2
 2202 02f4 4FEA4303 		lsl	r3, r3, #1
 2203 02f8 40F20002 		movw	r2, #:lower16:obd_std_strings
 2204 02fc C0F20002 		movt	r2, #:upper16:obd_std_strings
 2205 0300 9A18     		adds	r2, r3, r2
 2206 0302 0B46     		mov	r3, r1
 2207 0304 1068     		ldr	r0, [r2, #0]	@ unaligned
 2208 0306 5168     		ldr	r1, [r2, #4]	@ unaligned
 2209 0308 1860     		str	r0, [r3, #0]	@ unaligned
 2210 030a 5960     		str	r1, [r3, #4]	@ unaligned
 2211 030c 1289     		ldrh	r2, [r2, #8]	@ unaligned
 2212 030e 1A81     		strh	r2, [r3, #8]	@ unaligned
 270:../Main.c     **** 					break;
 2213              		.loc 1 270 0
 2214 0310 99E1     		b	.L55
 2215              	.L45:
 271:../Main.c     **** 				case ENGINE_RPM:
 272:../Main.c     **** 					ECU_Test[ECU_Index].Engine_RPM=(float)(((Data_Rx[3]*256)+Data_Rx[4])/4);
 2216              		.loc 1 272 0
 2217 0312 BA7D     		ldrb	r2, [r7, #22]	@ zero_extendqisi2
 2218 0314 FB7B     		ldrb	r3, [r7, #15]	@ zero_extendqisi2
 2219 0316 4FEA0321 		lsl	r1, r3, #8
 2220 031a 3B7C     		ldrb	r3, [r7, #16]	@ zero_extendqisi2
 2221 031c CB18     		adds	r3, r1, r3
 2222 031e 002B     		cmp	r3, #0
 2223 0320 01DA     		bge	.L54
 2224 0322 03F10303 		add	r3, r3, #3
 2225              	.L54:
 2226 0326 4FEAA303 		asr	r3, r3, #2
 2227 032a 07EE103A 		fmsr	s14, r3	@ int
 2228 032e F8EEC77A 		fsitos	s15, s14
 2229 0332 40F20003 		movw	r3, #:lower16:ECU_Test
 2230 0336 C0F20003 		movt	r3, #:upper16:ECU_Test
 2231 033a 4FEAC212 		lsl	r2, r2, #7
 2232 033e 9B18     		adds	r3, r3, r2
 2233 0340 03F14803 		add	r3, r3, #72
 2234 0344 C3ED007A 		fsts	s15, [r3, #0]
 273:../Main.c     **** 					break;
 2235              		.loc 1 273 0
 2236 0348 7DE1     		b	.L55
 2237              	.L46:
 274:../Main.c     **** 				case VEHICLE_SPEED:
 275:../Main.c     **** 					ECU_Test[ECU_Index].Vehicle_speed=Data_Rx[3];
 2238              		.loc 1 275 0
 2239 034a B97D     		ldrb	r1, [r7, #22]	@ zero_extendqisi2
 2240 034c FA7B     		ldrb	r2, [r7, #15]	@ zero_extendqisi2
 2241 034e 40F20003 		movw	r3, #:lower16:ECU_Test
 2242 0352 C0F20003 		movt	r3, #:upper16:ECU_Test
 2243 0356 4FEAC111 		lsl	r1, r1, #7
 2244 035a 5B18     		adds	r3, r3, r1
 2245 035c 03F14803 		add	r3, r3, #72
 2246 0360 1A71     		strb	r2, [r3, #4]
 276:../Main.c     **** 					break;
 2247              		.loc 1 276 0
 2248 0362 70E1     		b	.L55
 2249              	.L50:
 277:../Main.c     **** 				case FUEL_LEVEL:
 278:../Main.c     **** 					ECU_Test[ECU_Index].Feul_Level=(float)(((float)Data_Rx[3]*100)/255);//A*100/255
 2250              		.loc 1 278 0
 2251 0364 BA7D     		ldrb	r2, [r7, #22]	@ zero_extendqisi2
 2252 0366 FB7B     		ldrb	r3, [r7, #15]	@ zero_extendqisi2
 2253 0368 07EE903A 		fmsr	s15, r3	@ int
 2254 036c B8EE677A 		fuitos	s14, s15
 2255 0370 DFEDB87A 		flds	s15, .L76
 2256 0374 27EE277A 		fmuls	s14, s14, s15
 2257 0378 DFEDB77A 		flds	s15, .L76+4
 2258 037c C7EE277A 		fdivs	s15, s14, s15
 2259 0380 40F20003 		movw	r3, #:lower16:ECU_Test
 2260 0384 C0F20003 		movt	r3, #:upper16:ECU_Test
 2261 0388 4FEAC212 		lsl	r2, r2, #7
 2262 038c 9B18     		adds	r3, r3, r2
 2263 038e 03F15003 		add	r3, r3, #80
 2264 0392 C3ED007A 		fsts	s15, [r3, #0]
 279:../Main.c     **** 					break;
 2265              		.loc 1 279 0
 2266 0396 56E1     		b	.L55
 2267              	.L48:
 280:../Main.c     **** 				case RUNTIME_START:
 281:../Main.c     **** 					ECU_Test[ECU_Index].Engine_Run_Time=(float)((Data_Rx[3]*256)+Data_Rx[4]);//A*100/255
 2268              		.loc 1 281 0
 2269 0398 B97D     		ldrb	r1, [r7, #22]	@ zero_extendqisi2
 2270 039a FB7B     		ldrb	r3, [r7, #15]	@ zero_extendqisi2
 2271 039c 4FEA0322 		lsl	r2, r3, #8
 2272 03a0 3B7C     		ldrb	r3, [r7, #16]	@ zero_extendqisi2
 2273 03a2 D318     		adds	r3, r2, r3
 2274 03a4 07EE103A 		fmsr	s14, r3	@ int
 2275 03a8 F8EEC77A 		fsitos	s15, s14
 2276 03ac FCEEE77A 		ftouizs	s15, s15
 2277 03b0 17EE903A 		fmrs	r3, s15	@ int
 2278 03b4 9AB2     		uxth	r2, r3
 2279 03b6 40F20003 		movw	r3, #:lower16:ECU_Test
 2280 03ba C0F20003 		movt	r3, #:upper16:ECU_Test
 2281 03be 4FEAC111 		lsl	r1, r1, #7
 2282 03c2 5B18     		adds	r3, r3, r1
 2283 03c4 03F14803 		add	r3, r3, #72
 2284 03c8 DA80     		strh	r2, [r3, #6]	@ movhi
 282:../Main.c     **** 					break;
 2285              		.loc 1 282 0
 2286 03ca 00BF     		nop
 2287 03cc 3BE1     		b	.L55
 2288              	.L42:
 283:../Main.c     **** 				default:
 284:../Main.c     **** 					UART001_WriteDataBytes(&UART001_Handle0, (uint8_t*)&can_uart_error, (uint32_t)sizeof(can_uart_
 2289              		.loc 1 284 0
 2290 03ce 40F20000 		movw	r0, #:lower16:UART001_Handle0
 2291 03d2 C0F20000 		movt	r0, #:upper16:UART001_Handle0
 2292 03d6 40F20001 		movw	r1, #:lower16:can_uart_error
 2293 03da C0F20001 		movt	r1, #:upper16:can_uart_error
 2294 03de 4FF01002 		mov	r2, #16
 2295 03e2 FFF7FEFF 		bl	UART001_WriteDataBytes
 285:../Main.c     **** 					Error=MODE_CURR_DATA;
 2296              		.loc 1 285 0
 2297 03e6 4FF00103 		mov	r3, #1
 2298 03ea FB75     		strb	r3, [r7, #23]
 2299 03ec 2BE1     		b	.L55
 2300              	.L41:
 286:../Main.c     **** 				}
 287:../Main.c     **** 			}
 288:../Main.c     **** 		else if(MODE_Val==MODE_REQ_VIN)
 2301              		.loc 1 288 0
 2302 03ee 40F20003 		movw	r3, #:lower16:MODE_Val
 2303 03f2 C0F20003 		movt	r3, #:upper16:MODE_Val
 2304 03f6 1B78     		ldrb	r3, [r3, #0]	@ zero_extendqisi2
 2305 03f8 092B     		cmp	r3, #9
 2306 03fa 31D1     		bne	.L56
 289:../Main.c     **** 		{
 290:../Main.c     **** 			switch (PID_Val)//PID query Message is same in response
 2307              		.loc 1 290 0
 2308 03fc 40F20003 		movw	r3, #:lower16:PID_Val
 2309 0400 C0F20003 		movt	r3, #:upper16:PID_Val
 2310 0404 1B78     		ldrb	r3, [r3, #0]	@ zero_extendqisi2
 2311 0406 002B     		cmp	r3, #0
 2312 0408 1AD1     		bne	.L73
 2313              	.L58:
 291:../Main.c     **** 			{
 292:../Main.c     **** 			case PID_SUPPORT00:
 293:../Main.c     **** 				ECU_Test[ECU_Index].pid01to20M09_support=(unsigned long)((Data_Rx[3]<<24)|(Data_Rx[4]<<16)|(Dat
 2314              		.loc 1 293 0
 2315 040a B97D     		ldrb	r1, [r7, #22]	@ zero_extendqisi2
 2316 040c FB7B     		ldrb	r3, [r7, #15]	@ zero_extendqisi2
 2317 040e 4FEA0362 		lsl	r2, r3, #24
 2318 0412 3B7C     		ldrb	r3, [r7, #16]	@ zero_extendqisi2
 2319 0414 4FEA0343 		lsl	r3, r3, #16
 2320 0418 1A43     		orrs	r2, r2, r3
 2321 041a 7B7C     		ldrb	r3, [r7, #17]	@ zero_extendqisi2
 2322 041c 4FEA0323 		lsl	r3, r3, #8
 2323 0420 1A43     		orrs	r2, r2, r3
 2324 0422 BB7C     		ldrb	r3, [r7, #18]	@ zero_extendqisi2
 2325 0424 1343     		orrs	r3, r3, r2
 2326 0426 1A46     		mov	r2, r3
 2327 0428 40F20003 		movw	r3, #:lower16:ECU_Test
 2328 042c C0F20003 		movt	r3, #:upper16:ECU_Test
 2329 0430 4FEAC111 		lsl	r1, r1, #7
 2330 0434 5B18     		adds	r3, r3, r1
 2331 0436 03F11003 		add	r3, r3, #16
 2332 043a 1A60     		str	r2, [r3, #0]
 294:../Main.c     **** 				break;
 2333              		.loc 1 294 0
 2334 043c 00BF     		nop
 2335 043e 02E1     		b	.L55
 2336              	.L73:
 295:../Main.c     **** 			default:
 296:../Main.c     **** 				UART001_WriteDataBytes(&UART001_Handle0, (uint8_t*)&can_uart_error, (uint32_t)sizeof(can_uart_e
 2337              		.loc 1 296 0
 2338 0440 40F20000 		movw	r0, #:lower16:UART001_Handle0
 2339 0444 C0F20000 		movt	r0, #:upper16:UART001_Handle0
 2340 0448 40F20001 		movw	r1, #:lower16:can_uart_error
 2341 044c C0F20001 		movt	r1, #:upper16:can_uart_error
 2342 0450 4FF01002 		mov	r2, #16
 2343 0454 FFF7FEFF 		bl	UART001_WriteDataBytes
 297:../Main.c     **** 				Error=MODE_REQ_VIN;
 2344              		.loc 1 297 0
 2345 0458 4FF00903 		mov	r3, #9
 2346 045c FB75     		strb	r3, [r7, #23]
 2347 045e F2E0     		b	.L55
 2348              	.L56:
 298:../Main.c     **** 			}
 299:../Main.c     **** 		}
 300:../Main.c     **** 		else if(Data_Len&0x10)// First Frame for VIN Check
 2349              		.loc 1 300 0
 2350 0460 40F20003 		movw	r3, #:lower16:Data_Len
 2351 0464 C0F20003 		movt	r3, #:upper16:Data_Len
 2352 0468 1B78     		ldrb	r3, [r3, #0]	@ zero_extendqisi2
 2353 046a 03F01003 		and	r3, r3, #16
 2354 046e 002B     		cmp	r3, #0
 2355 0470 2ED0     		beq	.L60
 301:../Main.c     **** 		{
 302:../Main.c     **** 			if(Pid==VIN_NUM)
 2356              		.loc 1 302 0
 2357 0472 FB79     		ldrb	r3, [r7, #7]	@ zero_extendqisi2
 2358 0474 022B     		cmp	r3, #2
 2359 0476 16D1     		bne	.L61
 303:../Main.c     **** 			memcpy(ECU_Test[ECU_Index].VIN_Num,&Data_Rx[2],6);
 2360              		.loc 1 303 0
 2361 0478 BB7D     		ldrb	r3, [r7, #22]	@ zero_extendqisi2
 2362 047a 4FEAC313 		lsl	r3, r3, #7
 2363 047e 03F15002 		add	r2, r3, #80
 2364 0482 40F20003 		movw	r3, #:lower16:ECU_Test
 2365 0486 C0F20003 		movt	r3, #:upper16:ECU_Test
 2366 048a D318     		adds	r3, r2, r3
 2367 048c 03F10402 		add	r2, r3, #4
 2368 0490 07F10C03 		add	r3, r7, #12
 2369 0494 03F10203 		add	r3, r3, #2
 2370 0498 1046     		mov	r0, r2
 2371 049a 1946     		mov	r1, r3
 2372 049c 4FF00602 		mov	r2, #6
 2373 04a0 FFF7FEFF 		bl	memcpy
 2374 04a4 CFE0     		b	.L55
 2375              	.L61:
 304:../Main.c     **** 			else
 305:../Main.c     **** 			memcpy(ECU_Test[ECU_Index].CAL_Id,&Data_Rx[2],6);
 2376              		.loc 1 305 0
 2377 04a6 BB7D     		ldrb	r3, [r7, #22]	@ zero_extendqisi2
 2378 04a8 4FEAC313 		lsl	r3, r3, #7
 2379 04ac 03F16802 		add	r2, r3, #104
 2380 04b0 40F20003 		movw	r3, #:lower16:ECU_Test
 2381 04b4 C0F20003 		movt	r3, #:upper16:ECU_Test
 2382 04b8 D218     		adds	r2, r2, r3
 2383 04ba 07F10C03 		add	r3, r7, #12
 2384 04be 03F10203 		add	r3, r3, #2
 2385 04c2 1046     		mov	r0, r2
 2386 04c4 1946     		mov	r1, r3
 2387 04c6 4FF00602 		mov	r2, #6
 2388 04ca FFF7FEFF 		bl	memcpy
 2389 04ce BAE0     		b	.L55
 2390              	.L60:
 306:../Main.c     **** 		}
 307:../Main.c     **** 		else if(Data_Len&0x20)
 2391              		.loc 1 307 0
 2392 04d0 40F20003 		movw	r3, #:lower16:Data_Len
 2393 04d4 C0F20003 		movt	r3, #:upper16:Data_Len
 2394 04d8 1B78     		ldrb	r3, [r3, #0]	@ zero_extendqisi2
 2395 04da 03F02003 		and	r3, r3, #32
 2396 04de 002B     		cmp	r3, #0
 2397 04e0 00F0B180 		beq	.L55
 308:../Main.c     **** 		{
 309:../Main.c     **** 			if(Pid==VIN_NUM)
 2398              		.loc 1 309 0
 2399 04e4 FB79     		ldrb	r3, [r7, #7]	@ zero_extendqisi2
 2400 04e6 022B     		cmp	r3, #2
 2401 04e8 5AD1     		bne	.L62
 310:../Main.c     **** 				switch (Data_Len)
 2402              		.loc 1 310 0
 2403 04ea 40F20003 		movw	r3, #:lower16:Data_Len
 2404 04ee C0F20003 		movt	r3, #:upper16:Data_Len
 2405 04f2 1B78     		ldrb	r3, [r3, #0]	@ zero_extendqisi2
 2406 04f4 222B     		cmp	r3, #34
 2407 04f6 18D0     		beq	.L65
 2408 04f8 232B     		cmp	r3, #35
 2409 04fa 2BD0     		beq	.L66
 2410 04fc 212B     		cmp	r3, #33
 2411 04fe 3FD1     		bne	.L74
 2412              	.L64:
 311:../Main.c     **** 				{
 312:../Main.c     **** 				case 0x21:
 313:../Main.c     **** 					memcpy(&ECU_Test[ECU_Index].VIN_Num[6],&Data_Rx[0],8);
 2413              		.loc 1 313 0
 2414 0500 BB7D     		ldrb	r3, [r7, #22]	@ zero_extendqisi2
 2415 0502 4FEAC313 		lsl	r3, r3, #7
 2416 0506 03F15602 		add	r2, r3, #86
 2417 050a 40F20003 		movw	r3, #:lower16:ECU_Test
 2418 050e C0F20003 		movt	r3, #:upper16:ECU_Test
 2419 0512 D318     		adds	r3, r2, r3
 2420 0514 03F10402 		add	r2, r3, #4
 2421 0518 07F10C03 		add	r3, r7, #12
 2422 051c 1046     		mov	r0, r2
 2423 051e 1946     		mov	r1, r3
 2424 0520 4FF00802 		mov	r2, #8
 2425 0524 FFF7FEFF 		bl	memcpy
 314:../Main.c     **** 					break;
 2426              		.loc 1 314 0
 2427 0528 8DE0     		b	.L55
 2428              	.L65:
 315:../Main.c     **** 				case 0x22:
 316:../Main.c     **** 					memcpy(&ECU_Test[ECU_Index].VIN_Num[6+8],&Data_Rx[0],8);
 2429              		.loc 1 316 0
 2430 052a BB7D     		ldrb	r3, [r7, #22]	@ zero_extendqisi2
 2431 052c 4FEAC313 		lsl	r3, r3, #7
 2432 0530 03F15E02 		add	r2, r3, #94
 2433 0534 40F20003 		movw	r3, #:lower16:ECU_Test
 2434 0538 C0F20003 		movt	r3, #:upper16:ECU_Test
 2435 053c D318     		adds	r3, r2, r3
 2436 053e 03F10402 		add	r2, r3, #4
 2437 0542 07F10C03 		add	r3, r7, #12
 2438 0546 1046     		mov	r0, r2
 2439 0548 1946     		mov	r1, r3
 2440 054a 4FF00802 		mov	r2, #8
 2441 054e FFF7FEFF 		bl	memcpy
 317:../Main.c     **** 					break;
 2442              		.loc 1 317 0
 2443 0552 78E0     		b	.L55
 2444              	.L66:
 318:../Main.c     **** 				case 0x23:
 319:../Main.c     **** 					memcpy(&ECU_Test[ECU_Index].VIN_Num[6+8+8],&Data_Rx[0],8);
 2445              		.loc 1 319 0
 2446 0554 BB7D     		ldrb	r3, [r7, #22]	@ zero_extendqisi2
 2447 0556 4FEAC313 		lsl	r3, r3, #7
 2448 055a 03F16602 		add	r2, r3, #102
 2449 055e 40F20003 		movw	r3, #:lower16:ECU_Test
 2450 0562 C0F20003 		movt	r3, #:upper16:ECU_Test
 2451 0566 D318     		adds	r3, r2, r3
 2452 0568 03F10402 		add	r2, r3, #4
 2453 056c 07F10C03 		add	r3, r7, #12
 2454 0570 1046     		mov	r0, r2
 2455 0572 1946     		mov	r1, r3
 2456 0574 4FF00802 		mov	r2, #8
 2457 0578 FFF7FEFF 		bl	memcpy
 320:../Main.c     **** 					break;
 2458              		.loc 1 320 0
 2459 057c 00BF     		nop
 2460 057e 62E0     		b	.L55
 2461              	.L74:
 321:../Main.c     **** 				default:
 322:../Main.c     **** 					UART001_WriteDataBytes(&UART001_Handle0, (uint8_t*)&can_uart_error, (uint32_t)sizeof(can_uart_
 2462              		.loc 1 322 0
 2463 0580 40F20000 		movw	r0, #:lower16:UART001_Handle0
 2464 0584 C0F20000 		movt	r0, #:upper16:UART001_Handle0
 2465 0588 40F20001 		movw	r1, #:lower16:can_uart_error
 2466 058c C0F20001 		movt	r1, #:upper16:can_uart_error
 2467 0590 4FF01002 		mov	r2, #16
 2468 0594 FFF7FEFF 		bl	UART001_WriteDataBytes
 323:../Main.c     **** 					Error=MODE_REQ_VIN;
 2469              		.loc 1 323 0
 2470 0598 4FF00903 		mov	r3, #9
 2471 059c FB75     		strb	r3, [r7, #23]
 2472 059e 52E0     		b	.L55
 2473              	.L62:
 324:../Main.c     **** 				}
 325:../Main.c     **** 			else
 326:../Main.c     **** 			switch (Data_Len)
 2474              		.loc 1 326 0
 2475 05a0 40F20003 		movw	r3, #:lower16:Data_Len
 2476 05a4 C0F20003 		movt	r3, #:upper16:Data_Len
 2477 05a8 1B78     		ldrb	r3, [r3, #0]	@ zero_extendqisi2
 2478 05aa 222B     		cmp	r3, #34
 2479 05ac 16D0     		beq	.L70
 2480 05ae 232B     		cmp	r3, #35
 2481 05b0 27D0     		beq	.L71
 2482 05b2 212B     		cmp	r3, #33
 2483 05b4 38D1     		bne	.L75
 2484              	.L69:
 327:../Main.c     **** 				{
 328:../Main.c     **** 				case 0x21:
 329:../Main.c     **** 					memcpy(&ECU_Test[ECU_Index].CAL_Id[6],&Data_Rx[0],8);
 2485              		.loc 1 329 0
 2486 05b6 BB7D     		ldrb	r3, [r7, #22]	@ zero_extendqisi2
 2487 05b8 4FEAC313 		lsl	r3, r3, #7
 2488 05bc 03F16E02 		add	r2, r3, #110
 2489 05c0 40F20003 		movw	r3, #:lower16:ECU_Test
 2490 05c4 C0F20003 		movt	r3, #:upper16:ECU_Test
 2491 05c8 D218     		adds	r2, r2, r3
 2492 05ca 07F10C03 		add	r3, r7, #12
 2493 05ce 1046     		mov	r0, r2
 2494 05d0 1946     		mov	r1, r3
 2495 05d2 4FF00802 		mov	r2, #8
 2496 05d6 FFF7FEFF 		bl	memcpy
 330:../Main.c     **** 					break;
 2497              		.loc 1 330 0
 2498 05da 34E0     		b	.L55
 2499              	.L70:
 331:../Main.c     **** 				case 0x22:
 332:../Main.c     **** 					memcpy(&ECU_Test[ECU_Index].CAL_Id[6+8],&Data_Rx[0],8);
 2500              		.loc 1 332 0
 2501 05dc BB7D     		ldrb	r3, [r7, #22]	@ zero_extendqisi2
 2502 05de 4FEAC313 		lsl	r3, r3, #7
 2503 05e2 03F17602 		add	r2, r3, #118
 2504 05e6 40F20003 		movw	r3, #:lower16:ECU_Test
 2505 05ea C0F20003 		movt	r3, #:upper16:ECU_Test
 2506 05ee D218     		adds	r2, r2, r3
 2507 05f0 07F10C03 		add	r3, r7, #12
 2508 05f4 1046     		mov	r0, r2
 2509 05f6 1946     		mov	r1, r3
 2510 05f8 4FF00802 		mov	r2, #8
 2511 05fc FFF7FEFF 		bl	memcpy
 333:../Main.c     **** 					break;
 2512              		.loc 1 333 0
 2513 0600 21E0     		b	.L55
 2514              	.L71:
 334:../Main.c     **** 				case 0x23:
 335:../Main.c     **** 					memcpy(&ECU_Test[ECU_Index].CAL_Id[6+8+8],&Data_Rx[0],8);
 2515              		.loc 1 335 0
 2516 0602 BB7D     		ldrb	r3, [r7, #22]	@ zero_extendqisi2
 2517 0604 4FEAC313 		lsl	r3, r3, #7
 2518 0608 03F17E02 		add	r2, r3, #126
 2519 060c 40F20003 		movw	r3, #:lower16:ECU_Test
 2520 0610 C0F20003 		movt	r3, #:upper16:ECU_Test
 2521 0614 D218     		adds	r2, r2, r3
 2522 0616 07F10C03 		add	r3, r7, #12
 2523 061a 1046     		mov	r0, r2
 2524 061c 1946     		mov	r1, r3
 2525 061e 4FF00802 		mov	r2, #8
 2526 0622 FFF7FEFF 		bl	memcpy
 336:../Main.c     **** 					break;
 2527              		.loc 1 336 0
 2528 0626 0EE0     		b	.L55
 2529              	.L75:
 337:../Main.c     **** 				default:
 338:../Main.c     **** 					UART001_WriteDataBytes(&UART001_Handle0, (uint8_t*)&can_uart_error, (uint32_t)sizeof(can_uart_
 2530              		.loc 1 338 0
 2531 0628 40F20000 		movw	r0, #:lower16:UART001_Handle0
 2532 062c C0F20000 		movt	r0, #:upper16:UART001_Handle0
 2533 0630 40F20001 		movw	r1, #:lower16:can_uart_error
 2534 0634 C0F20001 		movt	r1, #:upper16:can_uart_error
 2535 0638 4FF01002 		mov	r2, #16
 2536 063c FFF7FEFF 		bl	UART001_WriteDataBytes
 339:../Main.c     **** 					Error=MODE_REQ_VIN;
 2537              		.loc 1 339 0
 2538 0640 4FF00903 		mov	r3, #9
 2539 0644 FB75     		strb	r3, [r7, #23]
 2540              	.L55:
 340:../Main.c     **** 				}
 341:../Main.c     **** 		}
 342:../Main.c     **** 
 343:../Main.c     **** 		return Error;
 2541              		.loc 1 343 0
 2542 0646 FB7D     		ldrb	r3, [r7, #23]	@ zero_extendqisi2
 2543              	.L72:
 344:../Main.c     **** 		}//first Else Ends here.
 345:../Main.c     **** }
 2544              		.loc 1 345 0
 2545 0648 1846     		mov	r0, r3
 2546 064a 07F11807 		add	r7, r7, #24
 2547 064e BD46     		mov	sp, r7
 2548 0650 80BD     		pop	{r7, pc}
 2549              	.L77:
 2550 0652 00BF     		.align	2
 2551              	.L76:
 2552 0654 0000C842 		.word	1120403456
 2553 0658 00007F43 		.word	1132396544
 2554              		.cfi_endproc
 2555              	.LFE120:
 2557              		.section	.rodata
 2558 00b6 0000     		.align	2
 2559              	.LC14:
 2560 00b8 4543553D 		.ascii	"ECU=x%.2X,PID_00=x%.8X\015\012\000"
 2560      78252E32 
 2560      582C5049 
 2560      445F3030 
 2560      3D78252E 
 2561 00d1 000000   		.align	2
 2562              	.LC15:
 2563 00d4 4543553D 		.ascii	"ECU=x%.2X,PID_20=x%.8X\015\012\000"
 2563      78252E32 
 2563      582C5049 
 2563      445F3230 
 2563      3D78252E 
 2564 00ed 000000   		.align	2
 2565              	.LC16:
 2566 00f0 4543553D 		.ascii	"ECU=x%.2X,PID_M9=x%.8X\015\012\000"
 2566      78252E32 
 2566      582C5049 
 2566      445F4D39 
 2566      3D78252E 
 2567 0109 000000   		.align	2
 2568              	.LC17:
 2569 010c 56494E3D 		.ascii	"VIN=%s\015\012\000"
 2569      25730D0A 
 2569      00
 2570              		.global	__aeabi_f2d
 2571 0115 000000   		.align	2
 2572              	.LC18:
 2573 0118 52504D3D 		.ascii	"RPM=%.2f,\011SPD=%d Km/h\015\012\000"
 2573      252E3266 
 2573      2C095350 
 2573      443D2564 
 2573      204B6D2F 
 2574              		.align	2
 2575              	.LC19:
 2576 0130 4655454C 		.ascii	"FUEL=%.2f L,\011RUNTIME=%d s\015\012\000"
 2576      3D252E32 
 2576      66204C2C 
 2576      0952554E 
 2576      54494D45 
 2577              		.section	.text.PrintData,"ax",%progbits
 2578              		.align	2
 2579              		.global	PrintData
 2580              		.thumb
 2581              		.thumb_func
 2583              	PrintData:
 2584              	.LFB121:
 346:../Main.c     **** void PrintData(uint8_t Param,uint8_t ECU_Index)
 347:../Main.c     **** {
 2585              		.loc 1 347 0
 2586              		.cfi_startproc
 2587              		@ args = 0, pretend = 0, frame = 64
 2588              		@ frame_needed = 1, uses_anonymous_args = 0
 2589 0000 B0B5     		push	{r4, r5, r7, lr}
 2590              	.LCFI12:
 2591              		.cfi_def_cfa_offset 16
 2592              		.cfi_offset 4, -16
 2593              		.cfi_offset 5, -12
 2594              		.cfi_offset 7, -8
 2595              		.cfi_offset 14, -4
 2596 0002 92B0     		sub	sp, sp, #72
 2597              	.LCFI13:
 2598              		.cfi_def_cfa_offset 88
 2599 0004 02AF     		add	r7, sp, #8
 2600              	.LCFI14:
 2601              		.cfi_def_cfa 7, 80
 2602 0006 0246     		mov	r2, r0
 2603 0008 0B46     		mov	r3, r1
 2604 000a FA71     		strb	r2, [r7, #7]
 2605 000c BB71     		strb	r3, [r7, #6]
 348:../Main.c     **** 	char buffer[50];
 349:../Main.c     **** 	switch(Param)
 2606              		.loc 1 349 0
 2607 000e FB79     		ldrb	r3, [r7, #7]	@ zero_extendqisi2
 2608 0010 012B     		cmp	r3, #1
 2609 0012 06D0     		beq	.L81
 2610 0014 022B     		cmp	r3, #2
 2611 0016 00F0C580 		beq	.L82
 2612 001a 002B     		cmp	r3, #0
 2613 001c 00F04E81 		beq	.L85
 2614 0020 37E1     		b	.L84
 2615              	.L81:
 350:../Main.c     **** 	{
 351:../Main.c     **** 	case PRINT_NOTHING:
 352:../Main.c     **** 		break;
 353:../Main.c     **** 	case PRINT_ECU_INFO:
 354:../Main.c     **** 		sprintf(&buffer[0],"ECU=x%.2X,PID_00=x%.8X\r\n",ECU_Test[ECU_Index].ECU_Add,ECU_Test[ECU_Index].p
 2616              		.loc 1 354 0
 2617 0022 BA79     		ldrb	r2, [r7, #6]	@ zero_extendqisi2
 2618 0024 40F20003 		movw	r3, #:lower16:ECU_Test
 2619 0028 C0F20003 		movt	r3, #:upper16:ECU_Test
 2620 002c 4FEAC212 		lsl	r2, r2, #7
 2621 0030 9B18     		adds	r3, r3, r2
 2622 0032 5B88     		ldrh	r3, [r3, #2]
 2623 0034 1A46     		mov	r2, r3
 2624 0036 B979     		ldrb	r1, [r7, #6]	@ zero_extendqisi2
 2625 0038 40F20003 		movw	r3, #:lower16:ECU_Test
 2626 003c C0F20003 		movt	r3, #:upper16:ECU_Test
 2627 0040 4FEAC111 		lsl	r1, r1, #7
 2628 0044 5B18     		adds	r3, r3, r1
 2629 0046 03F10403 		add	r3, r3, #4
 2630 004a 1B68     		ldr	r3, [r3, #0]
 2631 004c 07F10C01 		add	r1, r7, #12
 2632 0050 0846     		mov	r0, r1
 2633 0052 40F20001 		movw	r1, #:lower16:.LC14
 2634 0056 C0F20001 		movt	r1, #:upper16:.LC14
 2635 005a FFF7FEFF 		bl	sprintf
 355:../Main.c     **** 		UART001_WriteDataBytes(&UART001_Handle0, (uint8_t*)&buffer, (uint32_t)strlen(buffer)+1);
 2636              		.loc 1 355 0
 2637 005e 07F10C03 		add	r3, r7, #12
 2638 0062 1846     		mov	r0, r3
 2639 0064 FFF7FEFF 		bl	strlen
 2640 0068 0346     		mov	r3, r0
 2641 006a 03F10103 		add	r3, r3, #1
 2642 006e 07F10C02 		add	r2, r7, #12
 2643 0072 40F20000 		movw	r0, #:lower16:UART001_Handle0
 2644 0076 C0F20000 		movt	r0, #:upper16:UART001_Handle0
 2645 007a 1146     		mov	r1, r2
 2646 007c 1A46     		mov	r2, r3
 2647 007e FFF7FEFF 		bl	UART001_WriteDataBytes
 356:../Main.c     **** 		delay();
 2648              		.loc 1 356 0
 2649 0082 FFF7FEFF 		bl	delay
 357:../Main.c     **** 		sprintf(&buffer[0],"ECU=x%.2X,PID_20=x%.8X\r\n",ECU_Test[ECU_Index].ECU_Add,ECU_Test[ECU_Index].p
 2650              		.loc 1 357 0
 2651 0086 BA79     		ldrb	r2, [r7, #6]	@ zero_extendqisi2
 2652 0088 40F20003 		movw	r3, #:lower16:ECU_Test
 2653 008c C0F20003 		movt	r3, #:upper16:ECU_Test
 2654 0090 4FEAC212 		lsl	r2, r2, #7
 2655 0094 9B18     		adds	r3, r3, r2
 2656 0096 5B88     		ldrh	r3, [r3, #2]
 2657 0098 1A46     		mov	r2, r3
 2658 009a B979     		ldrb	r1, [r7, #6]	@ zero_extendqisi2
 2659 009c 40F20003 		movw	r3, #:lower16:ECU_Test
 2660 00a0 C0F20003 		movt	r3, #:upper16:ECU_Test
 2661 00a4 4FEAC111 		lsl	r1, r1, #7
 2662 00a8 5B18     		adds	r3, r3, r1
 2663 00aa 03F10803 		add	r3, r3, #8
 2664 00ae 1B68     		ldr	r3, [r3, #0]
 2665 00b0 07F10C01 		add	r1, r7, #12
 2666 00b4 0846     		mov	r0, r1
 2667 00b6 40F20001 		movw	r1, #:lower16:.LC15
 2668 00ba C0F20001 		movt	r1, #:upper16:.LC15
 2669 00be FFF7FEFF 		bl	sprintf
 358:../Main.c     **** 		UART001_WriteDataBytes(&UART001_Handle0, (uint8_t*)&buffer, (uint32_t)strlen(buffer)+1);
 2670              		.loc 1 358 0
 2671 00c2 07F10C03 		add	r3, r7, #12
 2672 00c6 1846     		mov	r0, r3
 2673 00c8 FFF7FEFF 		bl	strlen
 2674 00cc 0346     		mov	r3, r0
 2675 00ce 03F10103 		add	r3, r3, #1
 2676 00d2 07F10C02 		add	r2, r7, #12
 2677 00d6 40F20000 		movw	r0, #:lower16:UART001_Handle0
 2678 00da C0F20000 		movt	r0, #:upper16:UART001_Handle0
 2679 00de 1146     		mov	r1, r2
 2680 00e0 1A46     		mov	r2, r3
 2681 00e2 FFF7FEFF 		bl	UART001_WriteDataBytes
 359:../Main.c     **** 		delay();
 2682              		.loc 1 359 0
 2683 00e6 FFF7FEFF 		bl	delay
 360:../Main.c     **** 		sprintf(&buffer[0],"ECU=x%.2X,PID_M9=x%.8X\r\n",ECU_Test[ECU_Index].ECU_Add,ECU_Test[ECU_Index].p
 2684              		.loc 1 360 0
 2685 00ea BA79     		ldrb	r2, [r7, #6]	@ zero_extendqisi2
 2686 00ec 40F20003 		movw	r3, #:lower16:ECU_Test
 2687 00f0 C0F20003 		movt	r3, #:upper16:ECU_Test
 2688 00f4 4FEAC212 		lsl	r2, r2, #7
 2689 00f8 9B18     		adds	r3, r3, r2
 2690 00fa 5B88     		ldrh	r3, [r3, #2]
 2691 00fc 1A46     		mov	r2, r3
 2692 00fe B979     		ldrb	r1, [r7, #6]	@ zero_extendqisi2
 2693 0100 40F20003 		movw	r3, #:lower16:ECU_Test
 2694 0104 C0F20003 		movt	r3, #:upper16:ECU_Test
 2695 0108 4FEAC111 		lsl	r1, r1, #7
 2696 010c 5B18     		adds	r3, r3, r1
 2697 010e 03F11003 		add	r3, r3, #16
 2698 0112 1B68     		ldr	r3, [r3, #0]
 2699 0114 07F10C01 		add	r1, r7, #12
 2700 0118 0846     		mov	r0, r1
 2701 011a 40F20001 		movw	r1, #:lower16:.LC16
 2702 011e C0F20001 		movt	r1, #:upper16:.LC16
 2703 0122 FFF7FEFF 		bl	sprintf
 361:../Main.c     **** 		UART001_WriteDataBytes(&UART001_Handle0, (uint8_t*)&buffer, (uint32_t)strlen(buffer)+1);
 2704              		.loc 1 361 0
 2705 0126 07F10C03 		add	r3, r7, #12
 2706 012a 1846     		mov	r0, r3
 2707 012c FFF7FEFF 		bl	strlen
 2708 0130 0346     		mov	r3, r0
 2709 0132 03F10103 		add	r3, r3, #1
 2710 0136 07F10C02 		add	r2, r7, #12
 2711 013a 40F20000 		movw	r0, #:lower16:UART001_Handle0
 2712 013e C0F20000 		movt	r0, #:upper16:UART001_Handle0
 2713 0142 1146     		mov	r1, r2
 2714 0144 1A46     		mov	r2, r3
 2715 0146 FFF7FEFF 		bl	UART001_WriteDataBytes
 362:../Main.c     **** 		delay();
 2716              		.loc 1 362 0
 2717 014a FFF7FEFF 		bl	delay
 363:../Main.c     **** 		sprintf(&buffer[0],"VIN=%s\r\n",ECU_Test[ECU_Index].VIN_Num);
 2718              		.loc 1 363 0
 2719 014e BB79     		ldrb	r3, [r7, #6]	@ zero_extendqisi2
 2720 0150 4FEAC313 		lsl	r3, r3, #7
 2721 0154 03F15002 		add	r2, r3, #80
 2722 0158 40F20003 		movw	r3, #:lower16:ECU_Test
 2723 015c C0F20003 		movt	r3, #:upper16:ECU_Test
 2724 0160 D318     		adds	r3, r2, r3
 2725 0162 03F10403 		add	r3, r3, #4
 2726 0166 07F10C02 		add	r2, r7, #12
 2727 016a 1046     		mov	r0, r2
 2728 016c 40F20001 		movw	r1, #:lower16:.LC17
 2729 0170 C0F20001 		movt	r1, #:upper16:.LC17
 2730 0174 1A46     		mov	r2, r3
 2731 0176 FFF7FEFF 		bl	sprintf
 364:../Main.c     **** 		UART001_WriteDataBytes(&UART001_Handle0, (uint8_t*)&buffer, (uint32_t)strlen(buffer)+1);
 2732              		.loc 1 364 0
 2733 017a 07F10C03 		add	r3, r7, #12
 2734 017e 1846     		mov	r0, r3
 2735 0180 FFF7FEFF 		bl	strlen
 2736 0184 0346     		mov	r3, r0
 2737 0186 03F10103 		add	r3, r3, #1
 2738 018a 07F10C02 		add	r2, r7, #12
 2739 018e 40F20000 		movw	r0, #:lower16:UART001_Handle0
 2740 0192 C0F20000 		movt	r0, #:upper16:UART001_Handle0
 2741 0196 1146     		mov	r1, r2
 2742 0198 1A46     		mov	r2, r3
 2743 019a FFF7FEFF 		bl	UART001_WriteDataBytes
 365:../Main.c     **** 		delay();
 2744              		.loc 1 365 0
 2745 019e FFF7FEFF 		bl	delay
 366:../Main.c     **** //		sprintf(&buffer[0],"CAL ID=%s\r\n",ECU_Test[ECU_Index].CAL_Id);
 367:../Main.c     **** //		UART001_WriteDataBytes(&UART001_Handle0, (uint8_t*)&buffer, (uint32_t)strlen(buffer)+1);
 368:../Main.c     **** 		break;
 2746              		.loc 1 368 0
 2747 01a2 8CE0     		b	.L78
 2748              	.L82:
 369:../Main.c     **** 	case PRINT_VEHICAL_DATA:
 370:../Main.c     **** 
 371:../Main.c     **** 		sprintf(&buffer[0],"RPM=%.2f,\tSPD=%d Km/h\r\n",ECU_Test[ECU_Index].Engine_RPM,ECU_Test[ECU_Index
 2749              		.loc 1 371 0
 2750 01a4 BA79     		ldrb	r2, [r7, #6]	@ zero_extendqisi2
 2751 01a6 40F20003 		movw	r3, #:lower16:ECU_Test
 2752 01aa C0F20003 		movt	r3, #:upper16:ECU_Test
 2753 01ae 4FEAC212 		lsl	r2, r2, #7
 2754 01b2 9B18     		adds	r3, r3, r2
 2755 01b4 03F14803 		add	r3, r3, #72
 2756 01b8 1B68     		ldr	r3, [r3, #0]	@ float
 2757 01ba 1846     		mov	r0, r3	@ float
 2758 01bc FFF7FEFF 		bl	__aeabi_f2d
 2759 01c0 0446     		mov	r4, r0
 2760 01c2 0D46     		mov	r5, r1
 2761 01c4 BA79     		ldrb	r2, [r7, #6]	@ zero_extendqisi2
 2762 01c6 40F20003 		movw	r3, #:lower16:ECU_Test
 2763 01ca C0F20003 		movt	r3, #:upper16:ECU_Test
 2764 01ce 4FEAC212 		lsl	r2, r2, #7
 2765 01d2 9B18     		adds	r3, r3, r2
 2766 01d4 03F14803 		add	r3, r3, #72
 2767 01d8 1B79     		ldrb	r3, [r3, #4]	@ zero_extendqisi2
 2768 01da 1A46     		mov	r2, r3
 2769 01dc 07F10C03 		add	r3, r7, #12
 2770 01e0 0092     		str	r2, [sp, #0]
 2771 01e2 1846     		mov	r0, r3
 2772 01e4 40F20001 		movw	r1, #:lower16:.LC18
 2773 01e8 C0F20001 		movt	r1, #:upper16:.LC18
 2774 01ec 2246     		mov	r2, r4
 2775 01ee 2B46     		mov	r3, r5
 2776 01f0 FFF7FEFF 		bl	sprintf
 372:../Main.c     **** 		UART001_WriteDataBytes(&UART001_Handle0, (uint8_t*)&buffer, (uint32_t)strlen(buffer)+1);
 2777              		.loc 1 372 0
 2778 01f4 07F10C03 		add	r3, r7, #12
 2779 01f8 1846     		mov	r0, r3
 2780 01fa FFF7FEFF 		bl	strlen
 2781 01fe 0346     		mov	r3, r0
 2782 0200 03F10103 		add	r3, r3, #1
 2783 0204 07F10C02 		add	r2, r7, #12
 2784 0208 40F20000 		movw	r0, #:lower16:UART001_Handle0
 2785 020c C0F20000 		movt	r0, #:upper16:UART001_Handle0
 2786 0210 1146     		mov	r1, r2
 2787 0212 1A46     		mov	r2, r3
 2788 0214 FFF7FEFF 		bl	UART001_WriteDataBytes
 373:../Main.c     **** 		delay();
 2789              		.loc 1 373 0
 2790 0218 FFF7FEFF 		bl	delay
 374:../Main.c     **** 		sprintf(&buffer[0],"FUEL=%.2f L,\tRUNTIME=%d s\r\n",ECU_Test[ECU_Index].Feul_Level,ECU_Test[ECU_I
 2791              		.loc 1 374 0
 2792 021c BA79     		ldrb	r2, [r7, #6]	@ zero_extendqisi2
 2793 021e 40F20003 		movw	r3, #:lower16:ECU_Test
 2794 0222 C0F20003 		movt	r3, #:upper16:ECU_Test
 2795 0226 4FEAC212 		lsl	r2, r2, #7
 2796 022a 9B18     		adds	r3, r3, r2
 2797 022c 03F15003 		add	r3, r3, #80
 2798 0230 1B68     		ldr	r3, [r3, #0]	@ float
 2799 0232 1846     		mov	r0, r3	@ float
 2800 0234 FFF7FEFF 		bl	__aeabi_f2d
 2801 0238 0446     		mov	r4, r0
 2802 023a 0D46     		mov	r5, r1
 2803 023c BA79     		ldrb	r2, [r7, #6]	@ zero_extendqisi2
 2804 023e 40F20003 		movw	r3, #:lower16:ECU_Test
 2805 0242 C0F20003 		movt	r3, #:upper16:ECU_Test
 2806 0246 4FEAC212 		lsl	r2, r2, #7
 2807 024a 9B18     		adds	r3, r3, r2
 2808 024c 03F14803 		add	r3, r3, #72
 2809 0250 DB88     		ldrh	r3, [r3, #6]
 2810 0252 1A46     		mov	r2, r3
 2811 0254 07F10C03 		add	r3, r7, #12
 2812 0258 0092     		str	r2, [sp, #0]
 2813 025a 1846     		mov	r0, r3
 2814 025c 40F20001 		movw	r1, #:lower16:.LC19
 2815 0260 C0F20001 		movt	r1, #:upper16:.LC19
 2816 0264 2246     		mov	r2, r4
 2817 0266 2B46     		mov	r3, r5
 2818 0268 FFF7FEFF 		bl	sprintf
 375:../Main.c     **** 		UART001_WriteDataBytes(&UART001_Handle0, (uint8_t*)&buffer, (uint32_t)strlen(buffer)+1);
 2819              		.loc 1 375 0
 2820 026c 07F10C03 		add	r3, r7, #12
 2821 0270 1846     		mov	r0, r3
 2822 0272 FFF7FEFF 		bl	strlen
 2823 0276 0346     		mov	r3, r0
 2824 0278 03F10103 		add	r3, r3, #1
 2825 027c 07F10C02 		add	r2, r7, #12
 2826 0280 40F20000 		movw	r0, #:lower16:UART001_Handle0
 2827 0284 C0F20000 		movt	r0, #:upper16:UART001_Handle0
 2828 0288 1146     		mov	r1, r2
 2829 028a 1A46     		mov	r2, r3
 2830 028c FFF7FEFF 		bl	UART001_WriteDataBytes
 376:../Main.c     **** 		break;
 2831              		.loc 1 376 0
 2832 0290 15E0     		b	.L78
 2833              	.L84:
 377:../Main.c     **** 	default:
 378:../Main.c     **** 		UART001_WriteDataBytes(&UART001_Handle0, (uint8_t*)&can_uart_error,(uint32_t)strlen(can_uart_erro
 2834              		.loc 1 378 0
 2835 0292 40F20000 		movw	r0, #:lower16:can_uart_error
 2836 0296 C0F20000 		movt	r0, #:upper16:can_uart_error
 2837 029a FFF7FEFF 		bl	strlen
 2838 029e 0346     		mov	r3, r0
 2839 02a0 03F10103 		add	r3, r3, #1
 2840 02a4 40F20000 		movw	r0, #:lower16:UART001_Handle0
 2841 02a8 C0F20000 		movt	r0, #:upper16:UART001_Handle0
 2842 02ac 40F20001 		movw	r1, #:lower16:can_uart_error
 2843 02b0 C0F20001 		movt	r1, #:upper16:can_uart_error
 2844 02b4 1A46     		mov	r2, r3
 2845 02b6 FFF7FEFF 		bl	UART001_WriteDataBytes
 2846 02ba 00E0     		b	.L78
 2847              	.L85:
 352:../Main.c     **** 		break;
 2848              		.loc 1 352 0
 2849 02bc 00BF     		nop
 2850              	.L78:
 379:../Main.c     **** 	}
 380:../Main.c     **** }
 2851              		.loc 1 380 0
 2852 02be 07F14007 		add	r7, r7, #64
 2853 02c2 BD46     		mov	sp, r7
 2854 02c4 B0BD     		pop	{r4, r5, r7, pc}
 2855              		.cfi_endproc
 2856              	.LFE121:
 2858 02c6 00BF     		.section	.text.TimerInt,"ax",%progbits
 2859              		.align	2
 2860              		.global	TimerInt
 2861              		.thumb
 2862              		.thumb_func
 2864              	TimerInt:
 2865              	.LFB122:
 381:../Main.c     **** void TimerInt(void * args) {
 2866              		.loc 1 381 0
 2867              		.cfi_startproc
 2868              		@ args = 0, pretend = 0, frame = 8
 2869              		@ frame_needed = 1, uses_anonymous_args = 0
 2870 0000 80B5     		push	{r7, lr}
 2871              	.LCFI15:
 2872              		.cfi_def_cfa_offset 8
 2873              		.cfi_offset 7, -8
 2874              		.cfi_offset 14, -4
 2875 0002 82B0     		sub	sp, sp, #8
 2876              	.LCFI16:
 2877              		.cfi_def_cfa_offset 16
 2878 0004 00AF     		add	r7, sp, #0
 2879              	.LCFI17:
 2880              		.cfi_def_cfa_register 7
 2881 0006 7860     		str	r0, [r7, #4]
 382:../Main.c     **** 	IO004_TogglePin(IO004_Handle2);
 2882              		.loc 1 382 0
 2883 0008 40F20003 		movw	r3, #:lower16:IO004_Handle2
 2884 000c C0F20003 		movt	r3, #:upper16:IO004_Handle2
 2885 0010 5A68     		ldr	r2, [r3, #4]
 2886 0012 40F20003 		movw	r3, #:lower16:IO004_Handle2
 2887 0016 C0F20003 		movt	r3, #:upper16:IO004_Handle2
 2888 001a 5B78     		ldrb	r3, [r3, #1]	@ zero_extendqisi2
 2889 001c 4FF00111 		mov	r1, #65537
 2890 0020 01FA03F3 		lsl	r3, r1, r3
 2891 0024 5360     		str	r3, [r2, #4]
 383:../Main.c     **** 	Timer_Flag=TRUE;//	while(!);
 2892              		.loc 1 383 0
 2893 0026 40F20003 		movw	r3, #:lower16:Timer_Flag
 2894 002a C0F20003 		movt	r3, #:upper16:Timer_Flag
 2895 002e 4FF00102 		mov	r2, #1
 2896 0032 1A70     		strb	r2, [r3, #0]
 384:../Main.c     **** 	CanTxMsgObj.Identifier=PID_REQUEST;
 2897              		.loc 1 384 0
 2898 0034 40F20003 		movw	r3, #:lower16:CanTxMsgObj
 2899 0038 C0F20003 		movt	r3, #:upper16:CanTxMsgObj
 2900 003c 4FF4FC62 		mov	r2, #2016
 2901 0040 1A60     		str	r2, [r3, #0]
 385:../Main.c     **** 	CanTxMsgObj.data[1]=Data_Control_Frame[1];
 2902              		.loc 1 385 0
 2903 0042 40F20003 		movw	r3, #:lower16:Data_Control_Frame
 2904 0046 C0F20003 		movt	r3, #:upper16:Data_Control_Frame
 2905 004a 5A78     		ldrb	r2, [r3, #1]	@ zero_extendqisi2
 2906 004c 40F20003 		movw	r3, #:lower16:CanTxMsgObj
 2907 0050 C0F20003 		movt	r3, #:upper16:CanTxMsgObj
 2908 0054 1A73     		strb	r2, [r3, #12]
 386:../Main.c     **** 	CanTxMsgObj.data[2]=Data_Control_Frame[2];
 2909              		.loc 1 386 0
 2910 0056 40F20003 		movw	r3, #:lower16:Data_Control_Frame
 2911 005a C0F20003 		movt	r3, #:upper16:Data_Control_Frame
 2912 005e 9A78     		ldrb	r2, [r3, #2]	@ zero_extendqisi2
 2913 0060 40F20003 		movw	r3, #:lower16:CanTxMsgObj
 2914 0064 C0F20003 		movt	r3, #:upper16:CanTxMsgObj
 2915 0068 5A73     		strb	r2, [r3, #13]
 387:../Main.c     **** 	CAN001_ConfigMsgObj(&CAN001_Handle0,&CanTxMsgObj,1U);
 2916              		.loc 1 387 0
 2917 006a 40F20000 		movw	r0, #:lower16:CAN001_Handle0
 2918 006e C0F20000 		movt	r0, #:upper16:CAN001_Handle0
 2919 0072 40F20001 		movw	r1, #:lower16:CanTxMsgObj
 2920 0076 C0F20001 		movt	r1, #:upper16:CanTxMsgObj
 2921 007a 4FF00102 		mov	r2, #1
 2922 007e FFF7FEFF 		bl	CAN001_ConfigMsgObj
 388:../Main.c     **** 
 389:../Main.c     **** 	CAN001_UpdateMODataRegisters(&CAN001_Handle0,1,8,Data_Control_Frame);
 2923              		.loc 1 389 0
 2924 0082 40F20000 		movw	r0, #:lower16:CAN001_Handle0
 2925 0086 C0F20000 		movt	r0, #:upper16:CAN001_Handle0
 2926 008a 4FF00101 		mov	r1, #1
 2927 008e 4FF00802 		mov	r2, #8
 2928 0092 40F20003 		movw	r3, #:lower16:Data_Control_Frame
 2929 0096 C0F20003 		movt	r3, #:upper16:Data_Control_Frame
 2930 009a FFF7FEFF 		bl	CAN001_UpdateMODataRegisters
 390:../Main.c     **** 	CAN001_SendDataFrame(&CAN001_Handle0,1); //
 2931              		.loc 1 390 0
 2932 009e 40F20000 		movw	r0, #:lower16:CAN001_Handle0
 2933 00a2 C0F20000 		movt	r0, #:upper16:CAN001_Handle0
 2934 00a6 4FF00101 		mov	r1, #1
 2935 00aa FFF7FEFF 		bl	CAN001_SendDataFrame
 391:../Main.c     **** 	SYSTM001_StopTimer(TimerId);
 2936              		.loc 1 391 0
 2937 00ae 40F20003 		movw	r3, #:lower16:TimerId
 2938 00b2 C0F20003 		movt	r3, #:upper16:TimerId
 2939 00b6 1B68     		ldr	r3, [r3, #0]
 2940 00b8 1846     		mov	r0, r3
 2941 00ba FFF7FEFF 		bl	SYSTM001_StopTimer
 392:../Main.c     **** 	SYSTM001_DeleteTimer(TimerId);
 2942              		.loc 1 392 0
 2943 00be 40F20003 		movw	r3, #:lower16:TimerId
 2944 00c2 C0F20003 		movt	r3, #:upper16:TimerId
 2945 00c6 1B68     		ldr	r3, [r3, #0]
 2946 00c8 1846     		mov	r0, r3
 2947 00ca FFF7FEFF 		bl	SYSTM001_DeleteTimer
 393:../Main.c     ****     TimerId = SYSTM001_CreateTimer(100,SYSTM001_ONE_SHOT,TimerInt,NULL);
 2948              		.loc 1 393 0
 2949 00ce 4FF06400 		mov	r0, #100
 2950 00d2 4FF00001 		mov	r1, #0
 2951 00d6 40F20002 		movw	r2, #:lower16:TimerInt
 2952 00da C0F20002 		movt	r2, #:upper16:TimerInt
 2953 00de 4FF00003 		mov	r3, #0
 2954 00e2 FFF7FEFF 		bl	SYSTM001_CreateTimer
 2955 00e6 0246     		mov	r2, r0
 2956 00e8 40F20003 		movw	r3, #:lower16:TimerId
 2957 00ec C0F20003 		movt	r3, #:upper16:TimerId
 2958 00f0 1A60     		str	r2, [r3, #0]
 394:../Main.c     **** }
 2959              		.loc 1 394 0
 2960 00f2 07F10807 		add	r7, r7, #8
 2961 00f6 BD46     		mov	sp, r7
 2962 00f8 80BD     		pop	{r7, pc}
 2963              		.cfi_endproc
 2964              	.LFE122:
 2966 00fa 00BF     		.section	.text.Get_PID,"ax",%progbits
 2967              		.align	2
 2968              		.global	Get_PID
 2969              		.thumb
 2970              		.thumb_func
 2972              	Get_PID:
 2973              	.LFB123:
 395:../Main.c     **** //void TimerOneSec(void * args){
 396:../Main.c     **** //	Timer_Flag_1sec=TRUE;
 397:../Main.c     **** //	CAN_Tx_FLAG=TRUE;
 398:../Main.c     **** //	time_secs++;
 399:../Main.c     **** //	}
 400:../Main.c     **** 
 401:../Main.c     **** uint8_t Get_PID(uint16_t TimeToWait,uint8_t Mode_Req,uint8_t PID_Req,uint8_t ShowOP)
 402:../Main.c     **** {
 2974              		.loc 1 402 0
 2975              		.cfi_startproc
 2976              		@ args = 0, pretend = 0, frame = 16
 2977              		@ frame_needed = 1, uses_anonymous_args = 0
 2978 0000 80B5     		push	{r7, lr}
 2979              	.LCFI18:
 2980              		.cfi_def_cfa_offset 8
 2981              		.cfi_offset 7, -8
 2982              		.cfi_offset 14, -4
 2983 0002 84B0     		sub	sp, sp, #16
 2984              	.LCFI19:
 2985              		.cfi_def_cfa_offset 24
 2986 0004 00AF     		add	r7, sp, #0
 2987              	.LCFI20:
 2988              		.cfi_def_cfa_register 7
 2989 0006 F880     		strh	r0, [r7, #6]	@ movhi
 2990 0008 7971     		strb	r1, [r7, #5]
 2991 000a 3A71     		strb	r2, [r7, #4]
 2992 000c FB70     		strb	r3, [r7, #3]
 403:../Main.c     **** 	//Check IF VIN is Supported
 404:../Main.c     **** 	//SEND GETVIN
 405:../Main.c     **** 	//WAIT till get reply or timer expires
 406:../Main.c     **** 	//	  //Send  VIN Number Query
 407:../Main.c     **** 	uint8_t Error;
 408:../Main.c     **** 	uint8_t Data_Rx_Flag=FALSE;
 2993              		.loc 1 408 0
 2994 000e 4FF00003 		mov	r3, #0
 2995 0012 BB73     		strb	r3, [r7, #14]
 409:../Main.c     **** 	//ECU_Test[ECU_Index].ID_Req=PID_Req;	//so we can differentiate bw VIN & CALID
 410:../Main.c     **** 	Data[1]=Mode_Req;
 2996              		.loc 1 410 0
 2997 0014 40F20003 		movw	r3, #:lower16:Data
 2998 0018 C0F20003 		movt	r3, #:upper16:Data
 2999 001c 7A79     		ldrb	r2, [r7, #5]
 3000 001e 5A70     		strb	r2, [r3, #1]
 411:../Main.c     **** 	Data[2]=PID_Req;
 3001              		.loc 1 411 0
 3002 0020 40F20003 		movw	r3, #:lower16:Data
 3003 0024 C0F20003 		movt	r3, #:upper16:Data
 3004 0028 3A79     		ldrb	r2, [r7, #4]
 3005 002a 9A70     		strb	r2, [r3, #2]
 412:../Main.c     **** 	CanTxMsgObj.Identifier=FUNC_PID_REQUEST;
 3006              		.loc 1 412 0
 3007 002c 40F20003 		movw	r3, #:lower16:CanTxMsgObj
 3008 0030 C0F20003 		movt	r3, #:upper16:CanTxMsgObj
 3009 0034 40F2DF72 		movw	r2, #2015
 3010 0038 1A60     		str	r2, [r3, #0]
 413:../Main.c     **** 	CanTxMsgObj.data[1]=Data[1];
 3011              		.loc 1 413 0
 3012 003a 40F20003 		movw	r3, #:lower16:Data
 3013 003e C0F20003 		movt	r3, #:upper16:Data
 3014 0042 5A78     		ldrb	r2, [r3, #1]	@ zero_extendqisi2
 3015 0044 40F20003 		movw	r3, #:lower16:CanTxMsgObj
 3016 0048 C0F20003 		movt	r3, #:upper16:CanTxMsgObj
 3017 004c 1A73     		strb	r2, [r3, #12]
 414:../Main.c     **** 	CanTxMsgObj.data[2]=Data[2];
 3018              		.loc 1 414 0
 3019 004e 40F20003 		movw	r3, #:lower16:Data
 3020 0052 C0F20003 		movt	r3, #:upper16:Data
 3021 0056 9A78     		ldrb	r2, [r3, #2]	@ zero_extendqisi2
 3022 0058 40F20003 		movw	r3, #:lower16:CanTxMsgObj
 3023 005c C0F20003 		movt	r3, #:upper16:CanTxMsgObj
 3024 0060 5A73     		strb	r2, [r3, #13]
 415:../Main.c     **** 	CAN001_ConfigMsgObj(&CAN001_Handle0,&CanTxMsgObj,1U);
 3025              		.loc 1 415 0
 3026 0062 40F20000 		movw	r0, #:lower16:CAN001_Handle0
 3027 0066 C0F20000 		movt	r0, #:upper16:CAN001_Handle0
 3028 006a 40F20001 		movw	r1, #:lower16:CanTxMsgObj
 3029 006e C0F20001 		movt	r1, #:upper16:CanTxMsgObj
 3030 0072 4FF00102 		mov	r2, #1
 3031 0076 FFF7FEFF 		bl	CAN001_ConfigMsgObj
 416:../Main.c     **** 
 417:../Main.c     **** 	CAN001_UpdateMODataRegisters(&CAN001_Handle0,1,8,Data);
 3032              		.loc 1 417 0
 3033 007a 40F20000 		movw	r0, #:lower16:CAN001_Handle0
 3034 007e C0F20000 		movt	r0, #:upper16:CAN001_Handle0
 3035 0082 4FF00101 		mov	r1, #1
 3036 0086 4FF00802 		mov	r2, #8
 3037 008a 40F20003 		movw	r3, #:lower16:Data
 3038 008e C0F20003 		movt	r3, #:upper16:Data
 3039 0092 FFF7FEFF 		bl	CAN001_UpdateMODataRegisters
 418:../Main.c     **** 	CAN001_SendDataFrame(&CAN001_Handle0,1);
 3040              		.loc 1 418 0
 3041 0096 40F20000 		movw	r0, #:lower16:CAN001_Handle0
 3042 009a C0F20000 		movt	r0, #:upper16:CAN001_Handle0
 3043 009e 4FF00101 		mov	r1, #1
 3044 00a2 FFF7FEFF 		bl	CAN001_SendDataFrame
 419:../Main.c     **** 
 420:../Main.c     **** 	Timer_WaitId = SYSTM001_CreateTimer(TimeToWait,SYSTM001_ONE_SHOT,TimerWaitISR,NULL);
 3045              		.loc 1 420 0
 3046 00a6 FB88     		ldrh	r3, [r7, #6]
 3047 00a8 1846     		mov	r0, r3
 3048 00aa 4FF00001 		mov	r1, #0
 3049 00ae 40F20002 		movw	r2, #:lower16:TimerWaitISR
 3050 00b2 C0F20002 		movt	r2, #:upper16:TimerWaitISR
 3051 00b6 4FF00003 		mov	r3, #0
 3052 00ba FFF7FEFF 		bl	SYSTM001_CreateTimer
 3053 00be 0246     		mov	r2, r0
 3054 00c0 40F20003 		movw	r3, #:lower16:Timer_WaitId
 3055 00c4 C0F20003 		movt	r3, #:upper16:Timer_WaitId
 3056 00c8 1A60     		str	r2, [r3, #0]
 421:../Main.c     **** 	Timer_Wait_Expired=FALSE;
 3057              		.loc 1 421 0
 3058 00ca 40F20003 		movw	r3, #:lower16:Timer_Wait_Expired
 3059 00ce C0F20003 		movt	r3, #:upper16:Timer_Wait_Expired
 3060 00d2 4FF00002 		mov	r2, #0
 3061 00d6 1A70     		strb	r2, [r3, #0]
 422:../Main.c     **** 	SYSTM001_StartTimer (Timer_WaitId);
 3062              		.loc 1 422 0
 3063 00d8 40F20003 		movw	r3, #:lower16:Timer_WaitId
 3064 00dc C0F20003 		movt	r3, #:upper16:Timer_WaitId
 3065 00e0 1B68     		ldr	r3, [r3, #0]
 3066 00e2 1846     		mov	r0, r3
 3067 00e4 FFF7FEFF 		bl	SYSTM001_StartTimer
 423:../Main.c     **** 
 424:../Main.c     **** 	while(!Timer_Wait_Expired)
 3068              		.loc 1 424 0
 3069 00e8 1CE0     		b	.L88
 3070              	.L89:
 425:../Main.c     **** 	{
 426:../Main.c     **** 		if(CAN_RX_Pkt_Count)
 3071              		.loc 1 426 0
 3072 00ea 40F20003 		movw	r3, #:lower16:CAN_RX_Pkt_Count
 3073 00ee C0F20003 		movt	r3, #:upper16:CAN_RX_Pkt_Count
 3074 00f2 1B78     		ldrb	r3, [r3, #0]	@ zero_extendqisi2
 3075 00f4 002B     		cmp	r3, #0
 3076 00f6 15D0     		beq	.L88
 427:../Main.c     **** 		{
 428:../Main.c     **** 			Data_Rx_Flag=TRUE;
 3077              		.loc 1 428 0
 3078 00f8 4FF00103 		mov	r3, #1
 3079 00fc BB73     		strb	r3, [r7, #14]
 429:../Main.c     **** 			CAN_RX_Pkt_Count--;
 3080              		.loc 1 429 0
 3081 00fe 40F20003 		movw	r3, #:lower16:CAN_RX_Pkt_Count
 3082 0102 C0F20003 		movt	r3, #:upper16:CAN_RX_Pkt_Count
 3083 0106 1B78     		ldrb	r3, [r3, #0]	@ zero_extendqisi2
 3084 0108 03F1FF33 		add	r3, r3, #-1
 3085 010c DAB2     		uxtb	r2, r3
 3086 010e 40F20003 		movw	r3, #:lower16:CAN_RX_Pkt_Count
 3087 0112 C0F20003 		movt	r3, #:upper16:CAN_RX_Pkt_Count
 3088 0116 1A70     		strb	r2, [r3, #0]
 430:../Main.c     **** 			Error=StoreData(PID_Req);
 3089              		.loc 1 430 0
 3090 0118 3B79     		ldrb	r3, [r7, #4]	@ zero_extendqisi2
 3091 011a 1846     		mov	r0, r3
 3092 011c FFF7FEFF 		bl	StoreData
 3093 0120 0346     		mov	r3, r0
 3094 0122 FB73     		strb	r3, [r7, #15]
 3095              	.L88:
 424:../Main.c     **** 	while(!Timer_Wait_Expired)
 3096              		.loc 1 424 0 discriminator 1
 3097 0124 40F20003 		movw	r3, #:lower16:Timer_Wait_Expired
 3098 0128 C0F20003 		movt	r3, #:upper16:Timer_Wait_Expired
 3099 012c 1B78     		ldrb	r3, [r3, #0]	@ zero_extendqisi2
 3100 012e 002B     		cmp	r3, #0
 3101 0130 DBD0     		beq	.L89
 431:../Main.c     **** 		}
 432:../Main.c     **** 	}
 433:../Main.c     **** #ifndef Sniffer
 434:../Main.c     **** 	if(Data_Rx_Flag)
 3102              		.loc 1 434 0
 3103 0132 BB7B     		ldrb	r3, [r7, #14]	@ zero_extendqisi2
 3104 0134 002B     		cmp	r3, #0
 3105 0136 1FD0     		beq	.L90
 435:../Main.c     **** 	{
 436:../Main.c     **** 		Data_Rx_Flag=FALSE;
 3106              		.loc 1 436 0
 3107 0138 4FF00003 		mov	r3, #0
 3108 013c BB73     		strb	r3, [r7, #14]
 437:../Main.c     **** 	if(ShowOP==PRINT_ECU_INFO)
 3109              		.loc 1 437 0
 3110 013e FB78     		ldrb	r3, [r7, #3]	@ zero_extendqisi2
 3111 0140 012B     		cmp	r3, #1
 3112 0142 10D1     		bne	.L91
 438:../Main.c     **** 		{
 439:../Main.c     **** 			PrintData(PRINT_ECU_INFO,0);
 3113              		.loc 1 439 0
 3114 0144 4FF00100 		mov	r0, #1
 3115 0148 4FF00001 		mov	r1, #0
 3116 014c FFF7FEFF 		bl	PrintData
 440:../Main.c     **** 			delay();
 3117              		.loc 1 440 0
 3118 0150 FFF7FEFF 		bl	delay
 441:../Main.c     **** 			PrintData(PRINT_ECU_INFO,1);
 3119              		.loc 1 441 0
 3120 0154 4FF00100 		mov	r0, #1
 3121 0158 4FF00101 		mov	r1, #1
 3122 015c FFF7FEFF 		bl	PrintData
 442:../Main.c     **** 			delay();
 3123              		.loc 1 442 0
 3124 0160 FFF7FEFF 		bl	delay
 3125 0164 08E0     		b	.L90
 3126              	.L91:
 443:../Main.c     **** 		}
 444:../Main.c     **** 		else if(ShowOP==PRINT_VEHICAL_DATA)
 3127              		.loc 1 444 0
 3128 0166 FB78     		ldrb	r3, [r7, #3]	@ zero_extendqisi2
 3129 0168 022B     		cmp	r3, #2
 3130 016a 05D1     		bne	.L90
 445:../Main.c     **** 		{
 446:../Main.c     **** 			PrintData(PRINT_VEHICAL_DATA,0);
 3131              		.loc 1 446 0
 3132 016c 4FF00200 		mov	r0, #2
 3133 0170 4FF00001 		mov	r1, #0
 3134 0174 FFF7FEFF 		bl	PrintData
 3135              	.L90:
 447:../Main.c     **** 		}
 448:../Main.c     **** 	}
 449:../Main.c     **** #endif
 450:../Main.c     **** 	return Error;
 3136              		.loc 1 450 0
 3137 0178 FB7B     		ldrb	r3, [r7, #15]	@ zero_extendqisi2
 451:../Main.c     **** }
 3138              		.loc 1 451 0
 3139 017a 1846     		mov	r0, r3
 3140 017c 07F11007 		add	r7, r7, #16
 3141 0180 BD46     		mov	sp, r7
 3142 0182 80BD     		pop	{r7, pc}
 3143              		.cfi_endproc
 3144              	.LFE123:
 3146              		.section	.text.TimerWaitISR,"ax",%progbits
 3147              		.align	2
 3148              		.global	TimerWaitISR
 3149              		.thumb
 3150              		.thumb_func
 3152              	TimerWaitISR:
 3153              	.LFB124:
 452:../Main.c     **** 
 453:../Main.c     **** void TimerWaitISR (void * args)
 454:../Main.c     **** {
 3154              		.loc 1 454 0
 3155              		.cfi_startproc
 3156              		@ args = 0, pretend = 0, frame = 8
 3157              		@ frame_needed = 1, uses_anonymous_args = 0
 3158 0000 80B5     		push	{r7, lr}
 3159              	.LCFI21:
 3160              		.cfi_def_cfa_offset 8
 3161              		.cfi_offset 7, -8
 3162              		.cfi_offset 14, -4
 3163 0002 82B0     		sub	sp, sp, #8
 3164              	.LCFI22:
 3165              		.cfi_def_cfa_offset 16
 3166 0004 00AF     		add	r7, sp, #0
 3167              	.LCFI23:
 3168              		.cfi_def_cfa_register 7
 3169 0006 7860     		str	r0, [r7, #4]
 455:../Main.c     **** 	Timer_Wait_Expired=TRUE;
 3170              		.loc 1 455 0
 3171 0008 40F20003 		movw	r3, #:lower16:Timer_Wait_Expired
 3172 000c C0F20003 		movt	r3, #:upper16:Timer_Wait_Expired
 3173 0010 4FF00102 		mov	r2, #1
 3174 0014 1A70     		strb	r2, [r3, #0]
 456:../Main.c     **** 	SYSTM001_StopTimer(Timer_WaitId);
 3175              		.loc 1 456 0
 3176 0016 40F20003 		movw	r3, #:lower16:Timer_WaitId
 3177 001a C0F20003 		movt	r3, #:upper16:Timer_WaitId
 3178 001e 1B68     		ldr	r3, [r3, #0]
 3179 0020 1846     		mov	r0, r3
 3180 0022 FFF7FEFF 		bl	SYSTM001_StopTimer
 457:../Main.c     **** 	SYSTM001_DeleteTimer(Timer_WaitId);
 3181              		.loc 1 457 0
 3182 0026 40F20003 		movw	r3, #:lower16:Timer_WaitId
 3183 002a C0F20003 		movt	r3, #:upper16:Timer_WaitId
 3184 002e 1B68     		ldr	r3, [r3, #0]
 3185 0030 1846     		mov	r0, r3
 3186 0032 FFF7FEFF 		bl	SYSTM001_DeleteTimer
 458:../Main.c     **** }
 3187              		.loc 1 458 0
 3188 0036 07F10807 		add	r7, r7, #8
 3189 003a BD46     		mov	sp, r7
 3190 003c 80BD     		pop	{r7, pc}
 3191              		.cfi_endproc
 3192              	.LFE124:
 3194 003e 00BF     		.section	.text.print_Uart,"ax",%progbits
 3195              		.align	2
 3196              		.global	print_Uart
 3197              		.thumb
 3198              		.thumb_func
 3200              	print_Uart:
 3201              	.LFB125:
 459:../Main.c     **** void print_Uart(char Str[])
 460:../Main.c     **** {
 3202              		.loc 1 460 0
 3203              		.cfi_startproc
 3204              		@ args = 0, pretend = 0, frame = 32
 3205              		@ frame_needed = 1, uses_anonymous_args = 0
 3206 0000 80B5     		push	{r7, lr}
 3207              	.LCFI24:
 3208              		.cfi_def_cfa_offset 8
 3209              		.cfi_offset 7, -8
 3210              		.cfi_offset 14, -4
 3211 0002 88B0     		sub	sp, sp, #32
 3212              	.LCFI25:
 3213              		.cfi_def_cfa_offset 40
 3214 0004 00AF     		add	r7, sp, #0
 3215              	.LCFI26:
 3216              		.cfi_def_cfa_register 7
 3217 0006 7860     		str	r0, [r7, #4]
 461:../Main.c     **** char string[20];
 462:../Main.c     **** uint8_t length;
 463:../Main.c     **** length=strlen(Str);
 3218              		.loc 1 463 0
 3219 0008 7868     		ldr	r0, [r7, #4]
 3220 000a FFF7FEFF 		bl	strlen
 3221 000e 0346     		mov	r3, r0
 3222 0010 FB77     		strb	r3, [r7, #31]
 464:../Main.c     **** memcpy(&string[0],&Str[0],length);
 3223              		.loc 1 464 0
 3224 0012 FB7F     		ldrb	r3, [r7, #31]	@ zero_extendqisi2
 3225 0014 07F10802 		add	r2, r7, #8
 3226 0018 1046     		mov	r0, r2
 3227 001a 7968     		ldr	r1, [r7, #4]
 3228 001c 1A46     		mov	r2, r3
 3229 001e FFF7FEFF 		bl	memcpy
 465:../Main.c     **** UART001_WriteDataBytes(&UART001_Handle0, (uint8_t*)&string, (uint32_t)strlen(string)+1);
 3230              		.loc 1 465 0
 3231 0022 07F10803 		add	r3, r7, #8
 3232 0026 1846     		mov	r0, r3
 3233 0028 FFF7FEFF 		bl	strlen
 3234 002c 0346     		mov	r3, r0
 3235 002e 03F10103 		add	r3, r3, #1
 3236 0032 07F10802 		add	r2, r7, #8
 3237 0036 40F20000 		movw	r0, #:lower16:UART001_Handle0
 3238 003a C0F20000 		movt	r0, #:upper16:UART001_Handle0
 3239 003e 1146     		mov	r1, r2
 3240 0040 1A46     		mov	r2, r3
 3241 0042 FFF7FEFF 		bl	UART001_WriteDataBytes
 466:../Main.c     **** }
 3242              		.loc 1 466 0
 3243 0046 07F12007 		add	r7, r7, #32
 3244 004a BD46     		mov	sp, r7
 3245 004c 80BD     		pop	{r7, pc}
 3246              		.cfi_endproc
 3247              	.LFE125:
 3249 004e 00BF     		.section	.text.is_pid_supported,"ax",%progbits
 3250              		.align	2
 3251              		.global	is_pid_supported
 3252              		.thumb
 3253              		.thumb_func
 3255              	is_pid_supported:
 3256              	.LFB126:
 467:../Main.c     **** 
 468:../Main.c     **** 
 469:../Main.c     **** bool is_pid_supported(unsigned char pid, unsigned char mode,uint8_t ECU_Index)
 470:../Main.c     **** {
 3257              		.loc 1 470 0
 3258              		.cfi_startproc
 3259              		@ args = 0, pretend = 0, frame = 8
 3260              		@ frame_needed = 1, uses_anonymous_args = 0
 3261              		@ link register save eliminated.
 3262 0000 80B4     		push	{r7}
 3263              	.LCFI27:
 3264              		.cfi_def_cfa_offset 4
 3265              		.cfi_offset 7, -4
 3266 0002 83B0     		sub	sp, sp, #12
 3267              	.LCFI28:
 3268              		.cfi_def_cfa_offset 16
 3269 0004 00AF     		add	r7, sp, #0
 3270              	.LCFI29:
 3271              		.cfi_def_cfa_register 7
 3272 0006 1346     		mov	r3, r2
 3273 0008 0246     		mov	r2, r0
 3274 000a FA71     		strb	r2, [r7, #7]
 3275 000c 0A46     		mov	r2, r1
 3276 000e BA71     		strb	r2, [r7, #6]
 3277 0010 7B71     		strb	r3, [r7, #5]
 471:../Main.c     **** 	  if(pid==0)
 3278              		.loc 1 471 0
 3279 0012 FB79     		ldrb	r3, [r7, #7]	@ zero_extendqisi2
 3280 0014 002B     		cmp	r3, #0
 3281 0016 02D1     		bne	.L96
 472:../Main.c     **** 		return TRUE;
 3282              		.loc 1 472 0
 3283 0018 4FF00103 		mov	r3, #1
 3284 001c 78E0     		b	.L97
 3285              	.L96:
 473:../Main.c     **** 	  else if(mode==MODE_CURR_DATA)
 3286              		.loc 1 473 0
 3287 001e BB79     		ldrb	r3, [r7, #6]	@ zero_extendqisi2
 3288 0020 012B     		cmp	r3, #1
 3289 0022 56D1     		bne	.L98
 474:../Main.c     **** 	  {
 475:../Main.c     **** 	  if(pid<=0x20)
 3290              		.loc 1 475 0
 3291 0024 FB79     		ldrb	r3, [r7, #7]	@ zero_extendqisi2
 3292 0026 202B     		cmp	r3, #32
 3293 0028 19D8     		bhi	.L99
 476:../Main.c     **** 	  {
 477:../Main.c     **** 		if(1L<<(uint8_t)(0x20-pid) & ECU_Test[ECU_Index].pid01to20_support)
 3294              		.loc 1 477 0
 3295 002a FB79     		ldrb	r3, [r7, #7]
 3296 002c C3F12003 		rsb	r3, r3, #32
 3297 0030 DBB2     		uxtb	r3, r3
 3298 0032 4FF00102 		mov	r2, #1
 3299 0036 02FA03F3 		lsl	r3, r2, r3
 3300 003a 1A46     		mov	r2, r3
 3301 003c 7979     		ldrb	r1, [r7, #5]	@ zero_extendqisi2
 3302 003e 40F20003 		movw	r3, #:lower16:ECU_Test
 3303 0042 C0F20003 		movt	r3, #:upper16:ECU_Test
 3304 0046 4FEAC111 		lsl	r1, r1, #7
 3305 004a 5B18     		adds	r3, r3, r1
 3306 004c 03F10403 		add	r3, r3, #4
 3307 0050 1B68     		ldr	r3, [r3, #0]
 3308 0052 1340     		ands	r3, r3, r2
 3309 0054 002B     		cmp	r3, #0
 3310 0056 59D0     		beq	.L100
 478:../Main.c     **** 		  return TRUE;
 3311              		.loc 1 478 0
 3312 0058 4FF00103 		mov	r3, #1
 3313 005c 58E0     		b	.L97
 3314              	.L99:
 479:../Main.c     **** 	  }
 480:../Main.c     **** 	  else
 481:../Main.c     **** 	  if(pid<=0x40)
 3315              		.loc 1 481 0
 3316 005e FB79     		ldrb	r3, [r7, #7]	@ zero_extendqisi2
 3317 0060 402B     		cmp	r3, #64
 3318 0062 19D8     		bhi	.L101
 482:../Main.c     **** 	  {
 483:../Main.c     **** 		if(1L<<(uint8_t)(0x40-pid) & ECU_Test[ECU_Index].pid21to40_support)
 3319              		.loc 1 483 0
 3320 0064 FB79     		ldrb	r3, [r7, #7]
 3321 0066 C3F14003 		rsb	r3, r3, #64
 3322 006a DBB2     		uxtb	r3, r3
 3323 006c 4FF00102 		mov	r2, #1
 3324 0070 02FA03F3 		lsl	r3, r2, r3
 3325 0074 1A46     		mov	r2, r3
 3326 0076 7979     		ldrb	r1, [r7, #5]	@ zero_extendqisi2
 3327 0078 40F20003 		movw	r3, #:lower16:ECU_Test
 3328 007c C0F20003 		movt	r3, #:upper16:ECU_Test
 3329 0080 4FEAC111 		lsl	r1, r1, #7
 3330 0084 5B18     		adds	r3, r3, r1
 3331 0086 03F10803 		add	r3, r3, #8
 3332 008a 1B68     		ldr	r3, [r3, #0]
 3333 008c 1340     		ands	r3, r3, r2
 3334 008e 002B     		cmp	r3, #0
 3335 0090 3CD0     		beq	.L100
 484:../Main.c     **** 		  return TRUE;
 3336              		.loc 1 484 0
 3337 0092 4FF00103 		mov	r3, #1
 3338 0096 3BE0     		b	.L97
 3339              	.L101:
 485:../Main.c     **** 	  }
 486:../Main.c     **** 	  else
 487:../Main.c     **** 	  if(pid<=0x60)
 3340              		.loc 1 487 0
 3341 0098 FB79     		ldrb	r3, [r7, #7]	@ zero_extendqisi2
 3342 009a 602B     		cmp	r3, #96
 3343 009c 36D8     		bhi	.L100
 488:../Main.c     **** 	  {
 489:../Main.c     **** 		if(1L<<(uint8_t)(0x60-pid) & ECU_Test[ECU_Index].pid41to60_support)
 3344              		.loc 1 489 0
 3345 009e FB79     		ldrb	r3, [r7, #7]
 3346 00a0 C3F16003 		rsb	r3, r3, #96
 3347 00a4 DBB2     		uxtb	r3, r3
 3348 00a6 4FF00102 		mov	r2, #1
 3349 00aa 02FA03F3 		lsl	r3, r2, r3
 3350 00ae 1A46     		mov	r2, r3
 3351 00b0 7979     		ldrb	r1, [r7, #5]	@ zero_extendqisi2
 3352 00b2 40F20003 		movw	r3, #:lower16:ECU_Test
 3353 00b6 C0F20003 		movt	r3, #:upper16:ECU_Test
 3354 00ba 4FEAC111 		lsl	r1, r1, #7
 3355 00be 5B18     		adds	r3, r3, r1
 3356 00c0 03F10C03 		add	r3, r3, #12
 3357 00c4 1B68     		ldr	r3, [r3, #0]
 3358 00c6 1340     		ands	r3, r3, r2
 3359 00c8 002B     		cmp	r3, #0
 3360 00ca 1FD0     		beq	.L100
 490:../Main.c     **** 		  return TRUE;
 3361              		.loc 1 490 0
 3362 00cc 4FF00103 		mov	r3, #1
 3363 00d0 1EE0     		b	.L97
 3364              	.L98:
 491:../Main.c     **** 	  }
 492:../Main.c     ****   }
 493:../Main.c     ****   else
 494:../Main.c     ****   if( mode==MODE_REQ_VIN)
 3365              		.loc 1 494 0
 3366 00d2 BB79     		ldrb	r3, [r7, #6]	@ zero_extendqisi2
 3367 00d4 092B     		cmp	r3, #9
 3368 00d6 19D1     		bne	.L100
 495:../Main.c     ****   {
 496:../Main.c     **** 		if(1L<<(uint8_t)(0x20-pid) & ECU_Test[ECU_Index].pid01to20M09_support)
 3369              		.loc 1 496 0
 3370 00d8 FB79     		ldrb	r3, [r7, #7]
 3371 00da C3F12003 		rsb	r3, r3, #32
 3372 00de DBB2     		uxtb	r3, r3
 3373 00e0 4FF00102 		mov	r2, #1
 3374 00e4 02FA03F3 		lsl	r3, r2, r3
 3375 00e8 1A46     		mov	r2, r3
 3376 00ea 7979     		ldrb	r1, [r7, #5]	@ zero_extendqisi2
 3377 00ec 40F20003 		movw	r3, #:lower16:ECU_Test
 3378 00f0 C0F20003 		movt	r3, #:upper16:ECU_Test
 3379 00f4 4FEAC111 		lsl	r1, r1, #7
 3380 00f8 5B18     		adds	r3, r3, r1
 3381 00fa 03F11003 		add	r3, r3, #16
 3382 00fe 1B68     		ldr	r3, [r3, #0]
 3383 0100 1340     		ands	r3, r3, r2
 3384 0102 002B     		cmp	r3, #0
 3385 0104 02D0     		beq	.L100
 497:../Main.c     **** 			  return TRUE;
 3386              		.loc 1 497 0
 3387 0106 4FF00103 		mov	r3, #1
 3388 010a 01E0     		b	.L97
 3389              	.L100:
 498:../Main.c     ****   }
 499:../Main.c     ****   return FALSE;
 3390              		.loc 1 499 0
 3391 010c 4FF00003 		mov	r3, #0
 3392              	.L97:
 500:../Main.c     **** }
 3393              		.loc 1 500 0
 3394 0110 1846     		mov	r0, r3
 3395 0112 07F10C07 		add	r7, r7, #12
 3396 0116 BD46     		mov	sp, r7
 3397 0118 80BC     		pop	{r7}
 3398 011a 7047     		bx	lr
 3399              		.cfi_endproc
 3400              	.LFE126:
 3402              		.section	.text.Send_Data,"ax",%progbits
 3403              		.align	2
 3404              		.global	Send_Data
 3405              		.thumb
 3406              		.thumb_func
 3408              	Send_Data:
 3409              	.LFB127:
 501:../Main.c     **** void Send_Data(uint32_t Id,uint8_t Data[])
 502:../Main.c     **** {
 3410              		.loc 1 502 0
 3411              		.cfi_startproc
 3412              		@ args = 0, pretend = 0, frame = 8
 3413              		@ frame_needed = 1, uses_anonymous_args = 0
 3414 0000 80B5     		push	{r7, lr}
 3415              	.LCFI30:
 3416              		.cfi_def_cfa_offset 8
 3417              		.cfi_offset 7, -8
 3418              		.cfi_offset 14, -4
 3419 0002 82B0     		sub	sp, sp, #8
 3420              	.LCFI31:
 3421              		.cfi_def_cfa_offset 16
 3422 0004 00AF     		add	r7, sp, #0
 3423              	.LCFI32:
 3424              		.cfi_def_cfa_register 7
 3425 0006 7860     		str	r0, [r7, #4]
 3426 0008 3960     		str	r1, [r7, #0]
 503:../Main.c     **** 		CanTxMsgObj.Identifier=Id;
 3427              		.loc 1 503 0
 3428 000a 40F20003 		movw	r3, #:lower16:CanTxMsgObj
 3429 000e C0F20003 		movt	r3, #:upper16:CanTxMsgObj
 3430 0012 7A68     		ldr	r2, [r7, #4]
 3431 0014 1A60     		str	r2, [r3, #0]
 504:../Main.c     **** 		CanTxMsgObj.data[0]=Data[0];
 3432              		.loc 1 504 0
 3433 0016 3B68     		ldr	r3, [r7, #0]
 3434 0018 1A78     		ldrb	r2, [r3, #0]	@ zero_extendqisi2
 3435 001a 40F20003 		movw	r3, #:lower16:CanTxMsgObj
 3436 001e C0F20003 		movt	r3, #:upper16:CanTxMsgObj
 3437 0022 DA72     		strb	r2, [r3, #11]
 505:../Main.c     **** 		CanTxMsgObj.data[1]=Data[1];
 3438              		.loc 1 505 0
 3439 0024 3B68     		ldr	r3, [r7, #0]
 3440 0026 5A78     		ldrb	r2, [r3, #1]	@ zero_extendqisi2
 3441 0028 40F20003 		movw	r3, #:lower16:CanTxMsgObj
 3442 002c C0F20003 		movt	r3, #:upper16:CanTxMsgObj
 3443 0030 1A73     		strb	r2, [r3, #12]
 506:../Main.c     **** 		CanTxMsgObj.data[2]=Data[2];
 3444              		.loc 1 506 0
 3445 0032 3B68     		ldr	r3, [r7, #0]
 3446 0034 9A78     		ldrb	r2, [r3, #2]	@ zero_extendqisi2
 3447 0036 40F20003 		movw	r3, #:lower16:CanTxMsgObj
 3448 003a C0F20003 		movt	r3, #:upper16:CanTxMsgObj
 3449 003e 5A73     		strb	r2, [r3, #13]
 507:../Main.c     **** 		CanTxMsgObj.data[3]=Data[3];
 3450              		.loc 1 507 0
 3451 0040 3B68     		ldr	r3, [r7, #0]
 3452 0042 DA78     		ldrb	r2, [r3, #3]	@ zero_extendqisi2
 3453 0044 40F20003 		movw	r3, #:lower16:CanTxMsgObj
 3454 0048 C0F20003 		movt	r3, #:upper16:CanTxMsgObj
 3455 004c 9A73     		strb	r2, [r3, #14]
 508:../Main.c     **** 		CanTxMsgObj.data[4]=Data[4];
 3456              		.loc 1 508 0
 3457 004e 3B68     		ldr	r3, [r7, #0]
 3458 0050 1A79     		ldrb	r2, [r3, #4]	@ zero_extendqisi2
 3459 0052 40F20003 		movw	r3, #:lower16:CanTxMsgObj
 3460 0056 C0F20003 		movt	r3, #:upper16:CanTxMsgObj
 3461 005a DA73     		strb	r2, [r3, #15]
 509:../Main.c     **** 		CanTxMsgObj.data[5]=Data[5];
 3462              		.loc 1 509 0
 3463 005c 3B68     		ldr	r3, [r7, #0]
 3464 005e 5A79     		ldrb	r2, [r3, #5]	@ zero_extendqisi2
 3465 0060 40F20003 		movw	r3, #:lower16:CanTxMsgObj
 3466 0064 C0F20003 		movt	r3, #:upper16:CanTxMsgObj
 3467 0068 1A74     		strb	r2, [r3, #16]
 510:../Main.c     **** 		CanTxMsgObj.data[6]=Data[6];
 3468              		.loc 1 510 0
 3469 006a 3B68     		ldr	r3, [r7, #0]
 3470 006c 9A79     		ldrb	r2, [r3, #6]	@ zero_extendqisi2
 3471 006e 40F20003 		movw	r3, #:lower16:CanTxMsgObj
 3472 0072 C0F20003 		movt	r3, #:upper16:CanTxMsgObj
 3473 0076 5A74     		strb	r2, [r3, #17]
 511:../Main.c     **** 		CanTxMsgObj.data[7]=Data[7];
 3474              		.loc 1 511 0
 3475 0078 3B68     		ldr	r3, [r7, #0]
 3476 007a DA79     		ldrb	r2, [r3, #7]	@ zero_extendqisi2
 3477 007c 40F20003 		movw	r3, #:lower16:CanTxMsgObj
 3478 0080 C0F20003 		movt	r3, #:upper16:CanTxMsgObj
 3479 0084 9A74     		strb	r2, [r3, #18]
 512:../Main.c     **** 
 513:../Main.c     **** 		CAN001_ConfigMsgObj(&CAN001_Handle0,&CanTxMsgObj,1U);
 3480              		.loc 1 513 0
 3481 0086 40F20000 		movw	r0, #:lower16:CAN001_Handle0
 3482 008a C0F20000 		movt	r0, #:upper16:CAN001_Handle0
 3483 008e 40F20001 		movw	r1, #:lower16:CanTxMsgObj
 3484 0092 C0F20001 		movt	r1, #:upper16:CanTxMsgObj
 3485 0096 4FF00102 		mov	r2, #1
 3486 009a FFF7FEFF 		bl	CAN001_ConfigMsgObj
 514:../Main.c     **** 
 515:../Main.c     **** 		CAN001_UpdateMODataRegisters(&CAN001_Handle0,1,8,Data);
 3487              		.loc 1 515 0
 3488 009e 40F20000 		movw	r0, #:lower16:CAN001_Handle0
 3489 00a2 C0F20000 		movt	r0, #:upper16:CAN001_Handle0
 3490 00a6 4FF00101 		mov	r1, #1
 3491 00aa 4FF00802 		mov	r2, #8
 3492 00ae 3B68     		ldr	r3, [r7, #0]
 3493 00b0 FFF7FEFF 		bl	CAN001_UpdateMODataRegisters
 516:../Main.c     **** 		CAN001_SendDataFrame(&CAN001_Handle0,1);
 3494              		.loc 1 516 0
 3495 00b4 40F20000 		movw	r0, #:lower16:CAN001_Handle0
 3496 00b8 C0F20000 		movt	r0, #:upper16:CAN001_Handle0
 3497 00bc 4FF00101 		mov	r1, #1
 3498 00c0 FFF7FEFF 		bl	CAN001_SendDataFrame
 517:../Main.c     **** 		delay();
 3499              		.loc 1 517 0
 3500 00c4 FFF7FEFF 		bl	delay
 518:../Main.c     **** }
 3501              		.loc 1 518 0
 3502 00c8 07F10807 		add	r7, r7, #8
 3503 00cc BD46     		mov	sp, r7
 3504 00ce 80BD     		pop	{r7, pc}
 3505              		.cfi_endproc
 3506              	.LFE127:
 3508              		.text
 3509              	.Letext0:
 3510              		.file 2 "c:\\dave-3.1.10\\arm-gcc\\bin\\../lib/gcc/arm-none-eabi/4.7.4/../../../../arm-none-eabi/i
 3511              		.file 3 "C:\\DAVE-3.1.10\\eclipse\\/../CMSIS/Infineon/XMC4500_series/Include/XMC4500.h"
 3512              		.file 4 "C:\\DAVE3_workspace\\ws3.1.10\\CAN_BUS_THX\\Dave\\Generated\\inc\\DAVESupport/../../inc/L
 3513              		.file 5 "C:\\DAVE3_workspace\\ws3.1.10\\CAN_BUS_THX\\Dave\\Generated\\inc\\DAVESupport/../../inc/C
 3514              		.file 6 "C:\\DAVE3_workspace\\ws3.1.10\\CAN_BUS_THX\\Dave\\Generated\\inc\\DAVESupport/../../inc/C
 3515              		.file 7 "C:\\DAVE3_workspace\\ws3.1.10\\CAN_BUS_THX\\Dave\\Generated\\inc\\DAVESupport/../../inc/I
 3516              		.file 8 "C:\\DAVE3_workspace\\ws3.1.10\\CAN_BUS_THX\\Dave\\Generated\\inc\\DAVESupport/../../inc/U
 3517              		.file 9 "C:\\DAVE3_workspace\\ws3.1.10\\CAN_BUS_THX\\Dave\\Generated\\inc\\DAVESupport/../../inc/U
 3518              		.file 10 "C:\\DAVE3_workspace\\ws3.1.10\\CAN_BUS_THX\\Dave\\Generated\\inc\\DAVESupport/../../inc/
 3519              		.file 11 "../OBDIICANBS.h"
 3520              		.file 12 "C:\\DAVE-3.1.10\\eclipse\\/../CMSIS/Include/core_cm4.h"
 3521              		.file 13 "C:\\DAVE3_workspace\\ws3.1.10\\CAN_BUS_THX\\Dave\\Generated\\inc\\DAVESupport/../../inc/
 3522              		.file 14 "C:\\DAVE3_workspace\\ws3.1.10\\CAN_BUS_THX\\Dave\\Generated\\inc\\DAVESupport/../../inc/
 3523              		.file 15 "C:\\DAVE3_workspace\\ws3.1.10\\CAN_BUS_THX\\Dave\\Generated\\inc\\DAVESupport/../../inc/
 3524              		.file 16 "../Timer.h"
DEFINED SYMBOLS
                            *ABS*:00000000 Main.c
                            *COM*:00000004 Timer_WaitId
                            *COM*:00000004 TimerId
                            *COM*:00000004 TimerId1Sec
C:\Users\Aqeel\AppData\Local\Temp\cc3ps00F.s:26     .bss:00000000 Timer_Wait_Expired
C:\Users\Aqeel\AppData\Local\Temp\cc3ps00F.s:27     .bss:00000000 $d
C:\Users\Aqeel\AppData\Local\Temp\cc3ps00F.s:31     .bss:00000001 Timer_Flag
C:\Users\Aqeel\AppData\Local\Temp\cc3ps00F.s:36     .bss:00000002 Timer_Flag_1sec
C:\Users\Aqeel\AppData\Local\Temp\cc3ps00F.s:41     .bss:00000003 time_secs
C:\Users\Aqeel\AppData\Local\Temp\cc3ps00F.s:48     .data:00000000 PID_Desc
C:\Users\Aqeel\AppData\Local\Temp\cc3ps00F.s:45     .data:00000000 $d
C:\Users\Aqeel\AppData\Local\Temp\cc3ps00F.s:497    .data:00000900 obd_std_strings
C:\Users\Aqeel\AppData\Local\Temp\cc3ps00F.s:535    .data:000009ac pid_reslen
                            *COM*:00000100 ECU_Test
                            *COM*:00000090 CanRecMsgObj
                            *COM*:00000018 CanTxMsgObj
C:\Users\Aqeel\AppData\Local\Temp\cc3ps00F.s:622    .data:000009fc Data_Control_Frame
C:\Users\Aqeel\AppData\Local\Temp\cc3ps00F.s:635    .data:00000a04 Data
C:\Users\Aqeel\AppData\Local\Temp\cc3ps00F.s:648    .data:00000a0c data_uart
C:\Users\Aqeel\AppData\Local\Temp\cc3ps00F.s:654    .data:00000a1c can_uart_error
C:\Users\Aqeel\AppData\Local\Temp\cc3ps00F.s:660    .data:00000a40 data_uart_end
                            *COM*:00000032 can_uart_buffer
                            *COM*:00000001 PID_Val
                            *COM*:00000001 MODE_Val
                            *COM*:00000001 Data_Len
                            *COM*:00000002 ECU_Val
C:\Users\Aqeel\AppData\Local\Temp\cc3ps00F.s:672    .bss:00000004 Engine_RPM
C:\Users\Aqeel\AppData\Local\Temp\cc3ps00F.s:678    .bss:00000008 Vehicle_Speed
C:\Users\Aqeel\AppData\Local\Temp\cc3ps00F.s:684    .bss:0000000c Fuel_Level
C:\Users\Aqeel\AppData\Local\Temp\cc3ps00F.s:689    .bss:00000010 VIN_Flag
C:\Users\Aqeel\AppData\Local\Temp\cc3ps00F.s:694    .bss:00000011 CAN_Rx_Flag
C:\Users\Aqeel\AppData\Local\Temp\cc3ps00F.s:699    .bss:00000012 CAN_Tx_FLAG
C:\Users\Aqeel\AppData\Local\Temp\cc3ps00F.s:704    .bss:00000013 CAN_RX_Pkt_Count
C:\Users\Aqeel\AppData\Local\Temp\cc3ps00F.s:709    .bss:00000014 temp
                            *COM*:0000001e CAN_RX_Buffer
C:\Users\Aqeel\AppData\Local\Temp\cc3ps00F.s:715    .rodata:00000000 $d
C:\Users\Aqeel\AppData\Local\Temp\cc3ps00F.s:716    .rodata:00000000 .LC7
C:\Users\Aqeel\AppData\Local\Temp\cc3ps00F.s:719    .rodata:0000000c .LC8
C:\Users\Aqeel\AppData\Local\Temp\cc3ps00F.s:722    .rodata:00000018 .LC9
C:\Users\Aqeel\AppData\Local\Temp\cc3ps00F.s:725    .rodata:00000024 .LC10
C:\Users\Aqeel\AppData\Local\Temp\cc3ps00F.s:728    .rodata:00000030 .LC11
C:\Users\Aqeel\AppData\Local\Temp\cc3ps00F.s:731    .rodata:0000003c .LC12
C:\Users\Aqeel\AppData\Local\Temp\cc3ps00F.s:734    .rodata:00000048 .LC0
C:\Users\Aqeel\AppData\Local\Temp\cc3ps00F.s:744    .rodata:00000050 .LC1
C:\Users\Aqeel\AppData\Local\Temp\cc3ps00F.s:754    .rodata:00000058 .LC2
C:\Users\Aqeel\AppData\Local\Temp\cc3ps00F.s:764    .rodata:00000060 .LC3
C:\Users\Aqeel\AppData\Local\Temp\cc3ps00F.s:774    .rodata:00000068 .LC4
C:\Users\Aqeel\AppData\Local\Temp\cc3ps00F.s:784    .rodata:00000070 .LC5
C:\Users\Aqeel\AppData\Local\Temp\cc3ps00F.s:794    .rodata:00000078 .LC6
C:\Users\Aqeel\AppData\Local\Temp\cc3ps00F.s:804    .text.main:00000000 $t
C:\Users\Aqeel\AppData\Local\Temp\cc3ps00F.s:809    .text.main:00000000 main
C:\Users\Aqeel\AppData\Local\Temp\cc3ps00F.s:2864   .text.TimerInt:00000000 TimerInt
C:\Users\Aqeel\AppData\Local\Temp\cc3ps00F.s:3152   .text.TimerWaitISR:00000000 TimerWaitISR
C:\Users\Aqeel\AppData\Local\Temp\cc3ps00F.s:3200   .text.print_Uart:00000000 print_Uart
C:\Users\Aqeel\AppData\Local\Temp\cc3ps00F.s:2972   .text.Get_PID:00000000 Get_PID
C:\Users\Aqeel\AppData\Local\Temp\cc3ps00F.s:3255   .text.is_pid_supported:00000000 is_pid_supported
C:\Users\Aqeel\AppData\Local\Temp\cc3ps00F.s:1860   .text.delay:00000000 delay
C:\Users\Aqeel\AppData\Local\Temp\cc3ps00F.s:3408   .text.Send_Data:00000000 Send_Data
C:\Users\Aqeel\AppData\Local\Temp\cc3ps00F.s:1500   .text.main:00000700 $d
C:\Users\Aqeel\AppData\Local\Temp\cc3ps00F.s:1511   .rodata:00000080 .LC13
C:\Users\Aqeel\AppData\Local\Temp\cc3ps00F.s:1515   .text.CAN0_1_IRQHandler:00000000 $t
C:\Users\Aqeel\AppData\Local\Temp\cc3ps00F.s:1520   .text.CAN0_1_IRQHandler:00000000 CAN0_1_IRQHandler
C:\Users\Aqeel\AppData\Local\Temp\cc3ps00F.s:1855   .text.delay:00000000 $t
C:\Users\Aqeel\AppData\Local\Temp\cc3ps00F.s:1910   .text.delay:00000050 $d
C:\Users\Aqeel\AppData\Local\Temp\cc3ps00F.s:1916   .text.StoreData:00000000 $t
C:\Users\Aqeel\AppData\Local\Temp\cc3ps00F.s:1921   .text.StoreData:00000000 StoreData
C:\Users\Aqeel\AppData\Local\Temp\cc3ps00F.s:2043   .text.StoreData:00000110 $d
C:\Users\Aqeel\AppData\Local\Temp\cc3ps00F.s:2110   .text.StoreData:00000214 $t
C:\Users\Aqeel\AppData\Local\Temp\cc3ps00F.s:2552   .text.StoreData:00000654 $d
C:\Users\Aqeel\AppData\Local\Temp\cc3ps00F.s:2559   .rodata:000000b8 .LC14
C:\Users\Aqeel\AppData\Local\Temp\cc3ps00F.s:2562   .rodata:000000d4 .LC15
C:\Users\Aqeel\AppData\Local\Temp\cc3ps00F.s:2565   .rodata:000000f0 .LC16
C:\Users\Aqeel\AppData\Local\Temp\cc3ps00F.s:2568   .rodata:0000010c .LC17
C:\Users\Aqeel\AppData\Local\Temp\cc3ps00F.s:2572   .rodata:00000118 .LC18
C:\Users\Aqeel\AppData\Local\Temp\cc3ps00F.s:2575   .rodata:00000130 .LC19
C:\Users\Aqeel\AppData\Local\Temp\cc3ps00F.s:2578   .text.PrintData:00000000 $t
C:\Users\Aqeel\AppData\Local\Temp\cc3ps00F.s:2583   .text.PrintData:00000000 PrintData
C:\Users\Aqeel\AppData\Local\Temp\cc3ps00F.s:2859   .text.TimerInt:00000000 $t
C:\Users\Aqeel\AppData\Local\Temp\cc3ps00F.s:2967   .text.Get_PID:00000000 $t
C:\Users\Aqeel\AppData\Local\Temp\cc3ps00F.s:3147   .text.TimerWaitISR:00000000 $t
C:\Users\Aqeel\AppData\Local\Temp\cc3ps00F.s:3195   .text.print_Uart:00000000 $t
C:\Users\Aqeel\AppData\Local\Temp\cc3ps00F.s:3250   .text.is_pid_supported:00000000 $t
C:\Users\Aqeel\AppData\Local\Temp\cc3ps00F.s:3403   .text.Send_Data:00000000 $t
                     .debug_frame:00000010 $d
                           .group:00000000 wm4.1.592323046c84b12315b2713ce3886c0a
                           .group:00000000 wm4.XMC4500.h.45.215f4b8c79f46c7645c15373868d08c0
                           .group:00000000 wm4.core_cm4.h.47.41af406cb4cda82c972f112a9cd0a024
                           .group:00000000 wm4.newlib.h.8.a9901dc52d1357e3e94003403d43f8b5
                           .group:00000000 wm4.features.h.22.b72b3baab2bb2eab3661375590100b6b
                           .group:00000000 wm4.config.h.193.5fb8ef056cdff92dec3dee9552839d8c
                           .group:00000000 wm4._ansi.h.23.7aefdac4826acebbfc9f3822a0aeb14c
                           .group:00000000 wm4.stdint.h.20.54ad762faa59e3c05491630641c8d8bf
                           .group:00000000 wm4.core_cmInstr.h.39.3d3d1b4a79aef37532666dc6ee87c6ac
                           .group:00000000 wm4.core_cm4_simd.h.43.b5d1d38735af6366227b4256d330cf13
                           .group:00000000 wm4.core_cm4.h.178.e5ef5ce66d198d7f00f9d0076e267c41
                           .group:00000000 wm4.system_XMC4500.h.29.827f68baa362c84f2abae4ab67dde7c9
                           .group:00000000 wm4.XMC4500.h.198.8e022f279ff353ed081df898dc7b9cf3
                           .group:00000000 wm4.stddef.h.40.50cf36416e06376af8a9dca28536f2e4
                           .group:00000000 wm4.types.h.60.e75c47576398c648cdcf9000ace5e3d8
                           .group:00000000 wm4.MULTIPLEXER.h.46.4a863fbae1c79f0db26da3ce2dc30d02
                           .group:00000000 wm4.CCU8PWMLIB.h.74.725ec81203769525cc7a424597055f47
                           .group:00000000 wm4.MOTORLIB.h.62.951091d95913dd2ff36d761323a1771d
                           .group:00000000 wm4.DBG001.h.116.d6d9e7459a0faa3905c97c1d2edb339d
                           .group:00000000 wm4.uc_id.h.35.a6c4837fad81477ba31967683332b8cc
                           .group:00000000 wm4.CLK001_Const.h.50.e5e9c2ddc89f4cc9e7b93e9648fa94e4
                           .group:00000000 wm4.CLK001_Conf.h.81.82a8db895dc146da001475dd68223522
                           .group:00000000 wm4.CAN_Types.h.39.df7fb5ef31e40aa4065540aa5507b9c8
                           .group:00000000 wm4.CAN001.h.81.2ffbbfa413249ddb098d31e13be0595a
                           .group:00000000 wm4.CAN001_Conf.h.47.37054df7fc8e16acb44a84e615370b4e
                           .group:00000000 wm4.CAN001.h.1182.045aa37f116a6d2f0e10a31ad28e326b
                           .group:00000000 wm4.IO004.h.53.442ea5eb47ad9eedc675253aa35f3107
                           .group:00000000 wm4.NVIC002_Conf.h.62.46009087f3f9db74b135a4eac7d54acd
                           .group:00000000 wm4.Usic.h.54.8af9f733ba5771eeb374435d205ea54b
                           .group:00000000 wm4.UART001_Conf.h.53.a7d7190bee783732e895eea70c8f4a1b
                           .group:00000000 wm4.SYSTM001.h.64.6ecb31c49bc3e7691644fdcdfc11b5cd
                           .group:00000000 wm4.OBDIICANBS.h.23.85242098247a3692356aab936c88cebc
                           .group:00000000 wm4.stdio.h.31.f48311dde756a2aec27351b58a280fb9
                           .group:00000000 wm4.stddef.h.161.e50ff8a9d5d1abbc15641da28ac571bf
                           .group:00000000 wm4.stdarg.h.34.3a23a216c0c293b3d2ea2e89281481e6
                           .group:00000000 wm4._default_types.h.6.5e12cd604db8ce00b62bb2f02708eaf3
                           .group:00000000 wm4.lock.h.2.9bc98482741e5e2a9450b12934a684ea
                           .group:00000000 wm4.stddef.h.161.c6104a0666cf681b6269ddc9b4f516d4
                           .group:00000000 wm4.reent.h.16.9e42f0e588b85e70b2bf6572af57ce64
                           .group:00000000 wm4.types.h.23.0d949686bbcadd1621462d4fa1f884f9
                           .group:00000000 wm4.types.h.2.e9cec8c90ab35f77d9f499e06ae02400
                           .group:00000000 wm4.types.h.80.1f2c84c0d57dd52dd9936095d9ac218e
                           .group:00000000 wm4.stdio.h.2.4aa87247282eca6c8f36f9de33d8df1a
                           .group:00000000 wm4.stdio.h.63.dfdea6580b080784d08faace69b6ed76
                           .group:00000000 wm4.string.h.8.ef946ad0bc9ad5c970c365dcd1fc4b0a
                           .group:00000000 wm4.string.h.86.d5c872ff52e2712c985b588a0ef39f3c

UNDEFINED SYMBOLS
__aeabi_dadd
__aeabi_dcmplt
DAVE_Init
SYSTM001_CreateTimer
CAN001_Handle0
CAN001_ConfigMsgObj
CAN001_UpdateMODataRegisters
IO004_Handle1
IO004_Handle0
IO004_Handle2
SYSTM001_StartTimer
CAN001_GetMOFlagStatus
CAN001_ClearMOFlagStatus
CAN001_ReadMsgObj
sprintf
strlen
UART001_Handle0
UART001_WriteDataBytes
CAN001_GetNodeFlagStatus
CAN001_ClearNodeFlagStatus
memcpy
__aeabi_f2d
CAN001_SendDataFrame
SYSTM001_StopTimer
SYSTM001_DeleteTimer
